c__builtin__
set
p1
((lp2
V76561198009394826
p3
aV76561197989315571
p4
aV76561198069228551
p5
aV76561198073465360
p6
aV76561198008282253
p7
aV76561198010553848
p8
aV76561198056863735
p9
aV76561198065062175
p10
aV76561198220744176
p11
aV76561197967288799
p12
aV76561198009312693
p13
aV76561198000127691
p14
aV76561197998530400
p15
aV76561197961496877
p16
aV76561198023956576
p17
aV76561197972492038
p18
aV76561197993333422
p19
aV76561198150909378
p20
aV76561197994530750
p21
aV76561198011065738
p22
aV76561198013724225
p23
aV76561198048431234
p24
aV76561197983590669
p25
aV76561198062901582
p26
aV76561197983991352
p27
aV76561197983829586
p28
aV76561197993262226
p29
aV76561198001094489
p30
aV76561197985709312
p31
aV76561197963926152
p32
aV76561198003182575
p33
aV76561198001476746
p34
aV76561198291256697
p35
aV76561198040194363
p36
aV76561197964547320
p37
aV76561198219494691
p38
aV76561197998477944
p39
aV76561197964034447
p40
aV76561198082344211
p41
aV76561197962227238
p42
aV76561198094311760
p43
aV76561198045043993
p44
aV76561197994374865
p45
aV76561198111756281
p46
aV76561197985095602
p47
aV76561198044260497
p48
aV76561198054860931
p49
aV76561197970695997
p50
aV76561197987434214
p51
aV76561197960427679
p52
aV76561198056065302
p53
aV76561197979313128
p54
aV76561198064464599
p55
aV76561197975122568
p56
aV76561197970433601
p57
aV76561198085250809
p58
aV76561198014248320
p59
aV76561197963298399
p60
aV76561197962522194
p61
aV76561197964187767
p62
aV76561197970352637
p63
aV76561198179454225
p64
aV76561197960449239
p65
aV76561198037851857
p66
aV76561198009469261
p67
aV76561198244328766
p68
aV76561198009352626
p69
aV76561197976438430
p70
aV76561197975307549
p71
aV76561198259514536
p72
aV76561197962394175
p73
aV76561198028960925
p74
aV76561197970914857
p75
aV76561198016945492
p76
aV76561197973248946
p77
aV76561197976843692
p78
aV76561197985873954
p79
aV76561197965486824
p80
aV76561197960785451
p81
aV76561198019017312
p82
aV76561197971518512
p83
aV76561197993489089
p84
aV76561197970473844
p85
aV76561198131973940
p86
aV76561198056139603
p87
aV76561198025393082
p88
aV76561198023388037
p89
aV76561198024249880
p90
aV76561198075673900
p91
aV76561198006683262
p92
aV76561198024926759
p93
aV76561198065043708
p94
aV76561198236128914
p95
aV76561198021427936
p96
aV76561197961558433
p97
aV76561198087790990
p98
aV76561197992095024
p99
aV76561198014461013
p100
aV76561197994157941
p101
aV76561198051254627
p102
aV76561198042301775
p103
aV76561198039665999
p104
aV76561198010501810
p105
aV76561197962847330
p106
aV76561198042453383
p107
aV76561197977119261
p108
aV76561197990857737
p109
aV76561198200071502
p110
aV76561198092601370
p111
aV76561198292906823
p112
aV76561198028002145
p113
aV76561197969633521
p114
aV76561198023997059
p115
aV76561197999256936
p116
aV76561198070633921
p117
aV76561197975347475
p118
aV76561197996398886
p119
aV76561197992999675
p120
aV76561198022307981
p121
aV76561197965419171
p122
aV76561198023958584
p123
aV76561197982059438
p124
aV76561198123003722
p125
aV76561198196514225
p126
aV76561197961159510
p127
aV76561198042942688
p128
aV76561198173527711
p129
aV76561198001321706
p130
aV76561197963760189
p131
aV76561198176933338
p132
aV76561198001656297
p133
aV76561197962950676
p134
aV76561197972346185
p135
aV76561197983311834
p136
aV76561197961669293
p137
aV76561197983722049
p138
aV76561198008963413
p139
aV76561197984825524
p140
aV76561198039660447
p141
aV76561197971433883
p142
aV76561198010349881
p143
aV76561198000140639
p144
aV76561198079898356
p145
aV76561198038920790
p146
aV76561198011029202
p147
aV76561198025161695
p148
aV76561198086980652
p149
aV76561197991093332
p150
aV76561198020834956
p151
aV76561198013483882
p152
aV76561197977278209
p153
aV76561198029098923
p154
aV76561198132774570
p155
aV76561197962004969
p156
aV76561197968328842
p157
aV76561198005951938
p158
aV76561197981451399
p159
aV76561198200077483
p160
aV76561197982157782
p161
aV76561198070971574
p162
aV76561198029991139
p163
aV76561197976435963
p164
aV76561197983745982
p165
aV76561197960272389
p166
aV76561198084207906
p167
aV76561197995675618
p168
aV76561198035012389
p169
aV76561197970572919
p170
aV76561198004355948
p171
aV76561198017612485
p172
aV76561197984013429
p173
aV76561198041041126
p174
aV76561198025156771
p175
aV76561197987724838
p176
aV76561197968639666
p177
aV76561198049102292
p178
aV76561198019930483
p179
aV76561197975728136
p180
aV76561197963101709
p181
aV76561198180873946
p182
aV76561197996740690
p183
aV76561197961733224
p184
aV76561197964921319
p185
aV76561198016825239
p186
aV76561198179180834
p187
aV76561197996808168
p188
aV76561198030879198
p189
aV76561198025370371
p190
aV76561198002795718
p191
aV76561198064550688
p192
aV76561197961020145
p193
aV76561198022855022
p194
aV76561198005538556
p195
aV76561197995385433
p196
aV76561197989521282
p197
aV76561198174390514
p198
aV76561197966968026
p199
aV76561197968557133
p200
aV76561198130205878
p201
aV76561198004545705
p202
aV76561197996793789
p203
aV76561198185932237
p204
aV76561197994321360
p205
aV76561198099071867
p206
aV76561197972498293
p207
aV76561198164638152
p208
aV76561197993188212
p209
aV76561197982970488
p210
aV76561198005980162
p211
aV76561197975278526
p212
aV76561198111515224
p213
aV76561197993240297
p214
aV76561198040510233
p215
aV76561197997597678
p216
aV76561197987784615
p217
aV76561197994009182
p218
aV76561197990553956
p219
aV76561197967458755
p220
aV76561198020742081
p221
aV76561198168831004
p222
aV76561198067230053
p223
aV76561197962691233
p224
aV76561197998459878
p225
aV76561198272996697
p226
aV76561197962234023
p227
aV76561198081488205
p228
aV76561197994669073
p229
aV76561198092725189
p230
aV76561197967661608
p231
aV76561197975403551
p232
aV76561198079776753
p233
aV76561197980135603
p234
aV76561197988249637
p235
aV76561197978007852
p236
aV76561197967785836
p237
aV76561198004429398
p238
aV76561198015192809
p239
aV76561198082250512
p240
aV76561197980364466
p241
aV76561197993056229
p242
aV76561198009456009
p243
aV76561198004575191
p244
aV76561197996689190
p245
aV76561197994246398
p246
aV76561197993773428
p247
aV76561197974779338
p248
aV76561198018678113
p249
aV76561198095550426
p250
aV76561197979436173
p251
aV76561197970727512
p252
aV76561198019084424
p253
aV76561197979815912
p254
aV76561197998574440
p255
aV76561197967476255
p256
aV76561197970343487
p257
aV76561197972301729
p258
aV76561198167034578
p259
aV76561198077445537
p260
aV76561197978484619
p261
aV76561197993223103
p262
aV76561198077580104
p263
aV76561197971737388
p264
aV76561197991436137
p265
aV76561197992549172
p266
aV76561197968471152
p267
aV76561198021498717
p268
aV76561198061152429
p269
aV76561197981161861
p270
aV76561197967034012
p271
aV76561198189115737
p272
aV76561197977614449
p273
aV76561198025257341
p274
aV76561197999684291
p275
aV76561197968207035
p276
aV76561197967652662
p277
aV76561197987418963
p278
aV76561198084182112
p279
aV76561197962147233
p280
aV76561198053411670
p281
aV76561197974523757
p282
aV76561198089817727
p283
aV76561197982961134
p284
aV76561198020468407
p285
aV76561198023790099
p286
aV76561198043804860
p287
aV76561197996720974
p288
aV76561197961673457
p289
aV76561198049181202
p290
aV76561197983665689
p291
aV76561198040521675
p292
aV76561198010275303
p293
aV76561198045063921
p294
aV76561198188815519
p295
aV76561197982325126
p296
aV76561197960399384
p297
aV76561197981403870
p298
aV76561198060442957
p299
aV76561198003242562
p300
aV76561197987149897
p301
aV76561198080530732
p302
aV76561197978095493
p303
aV76561198010870696
p304
aV76561197992699978
p305
aV76561198053517056
p306
aV76561197987395160
p307
aV76561197965125822
p308
aV76561198116113453
p309
aV76561197961218376
p310
aV76561197993863261
p311
aV76561197970222376
p312
aV76561197995700896
p313
aV76561197993625854
p314
aV76561197996287125
p315
aV76561198017484125
p316
aV76561197969422231
p317
aV76561198054677241
p318
aV76561197987722206
p319
aV76561198014872213
p320
aV76561198027534058
p321
aV76561197995449349
p322
aV76561198029494394
p323
aV76561198025240720
p324
aV76561198042113071
p325
aV76561198277345848
p326
aV76561198037040479
p327
aV76561198100003017
p328
aV76561197986059751
p329
aV76561198015468894
p330
aV76561198065742277
p331
aV76561197962949656
p332
aV76561197985576414
p333
aV76561198060596172
p334
aV76561198002953633
p335
aV76561197981071573
p336
aV76561198010556112
p337
aV76561197968060264
p338
aV76561197992970445
p339
aV76561198019190675
p340
aV76561197998548763
p341
aV76561197973980684
p342
aV76561198201709066
p343
aV76561197960530728
p344
aV76561198052642215
p345
aV76561197991517882
p346
aV76561198037751931
p347
aV76561197984913319
p348
aV76561198071241576
p349
aV76561198006986671
p350
aV76561198118768640
p351
aV76561197974734393
p352
aV76561197978017865
p353
aV76561198198858425
p354
aV76561197972518453
p355
aV76561197987117506
p356
aV76561197988911851
p357
aV76561198066393664
p358
aV76561198007301774
p359
aV76561198051761055
p360
aV76561197983536754
p361
aV76561198006625532
p362
aV76561198020075055
p363
aV76561198059465012
p364
aV76561198100561588
p365
aV76561197961231095
p366
aV76561198234146536
p367
aV76561198030529988
p368
aV76561198013088810
p369
aV76561198007947403
p370
aV76561197973417922
p371
aV76561197982606336
p372
aV76561197998724036
p373
aV76561197967561915
p374
aV76561197994461824
p375
aV76561198182166129
p376
aV76561198126351984
p377
aV76561198051375116
p378
aV76561198024347642
p379
aV76561197997176115
p380
aV76561197971263397
p381
aV76561198062241572
p382
aV76561197965413640
p383
aV76561198018982479
p384
aV76561198088433481
p385
aV76561197982928473
p386
aV76561197960425589
p387
aV76561198019715364
p388
aV76561197980499694
p389
aV76561198049827411
p390
aV76561198054128245
p391
aV76561198050989921
p392
aV76561198010635669
p393
aV76561197970872284
p394
aV76561198141399970
p395
aV76561198015205266
p396
aV76561198039068787
p397
aV76561197992381707
p398
aV76561198086748522
p399
aV76561198210138405
p400
aV76561198050550006
p401
aV76561197976598405
p402
aV76561197970950436
p403
aV76561198170541993
p404
aV76561197993025155
p405
aV76561197965259554
p406
aV76561197960674230
p407
aV76561197960609907
p408
aV76561198015033644
p409
aV76561198015570401
p410
aV76561197973455695
p411
aV76561198006951608
p412
aV76561197997257085
p413
aV76561198207786573
p414
aV76561197979213159
p415
aV76561197995210450
p416
aV76561198040336677
p417
aV76561197984262280
p418
aV76561198013364500
p419
aV76561198005512091
p420
aV76561197968675426
p421
aV76561198001168789
p422
aV76561198116588825
p423
aV76561198028226254
p424
aV76561197966597052
p425
aV76561197960315154
p426
aV76561198044882996
p427
aV76561198008564002
p428
aV76561197961975505
p429
aV76561198000218343
p430
aV76561198073617402
p431
aV76561198004263567
p432
aV76561198008935430
p433
aV76561198008684621
p434
aV76561198164069970
p435
aV76561197987332045
p436
aV76561197984052422
p437
aV76561198153178759
p438
aV76561197998407067
p439
aV76561197988040112
p440
aV76561198277557491
p441
aV76561198024226518
p442
aV76561198055873935
p443
aV76561197998508483
p444
aV76561197972609099
p445
aV76561198045456511
p446
aV76561197961162735
p447
aV76561198046185876
p448
aV76561198064165381
p449
aV76561198001565256
p450
aV76561198033275333
p451
aV76561198036774807
p452
aV76561198004411286
p453
aV76561197971115936
p454
aV76561197992163111
p455
aV76561197974492054
p456
aV76561198139708570
p457
aV76561198005220924
p458
aV76561197964415046
p459
aV76561197981682818
p460
aV76561198040710948
p461
aV76561197967743621
p462
aV76561197967851889
p463
aV76561197994773238
p464
aV76561198051767486
p465
aV76561198150269464
p466
aV76561198070084138
p467
aV76561197990089422
p468
aV76561198042998231
p469
aV76561198001324599
p470
aV76561198034144606
p471
aV76561197967081911
p472
aV76561198051669054
p473
aV76561197979889800
p474
aV76561198080740997
p475
aV76561198030542325
p476
aV76561198003303073
p477
aV76561197964617800
p478
aV76561198006938324
p479
aV76561197992363366
p480
aV76561197993024688
p481
aV76561197963703070
p482
aV76561197970732026
p483
aV76561197965314597
p484
aV76561198000854933
p485
aV76561197970828629
p486
aV76561198090951507
p487
aV76561198048075636
p488
aV76561197980967645
p489
aV76561197973086581
p490
aV76561198164970009
p491
aV76561198071882074
p492
aV76561197960365496
p493
aV76561197962807062
p494
aV76561198099419189
p495
aV76561198043109348
p496
aV76561198125631270
p497
aV76561198064769219
p498
aV76561198126234879
p499
aV76561197993133289
p500
aV76561197962427552
p501
aV76561198029186103
p502
aV76561197993176847
p503
aV76561198002556957
p504
aV76561198089049808
p505
aV76561198113599062
p506
aV76561198040046046
p507
aV76561197990747838
p508
aV76561197993597689
p509
aV76561197980088134
p510
aV76561198077924852
p511
aV76561197993618890
p512
aV76561197999358805
p513
aV76561198003189404
p514
aV76561197972469525
p515
aV76561197993917078
p516
aV76561198005017701
p517
aV76561197977436280
p518
aV76561197961697432
p519
aV76561198132587968
p520
aV76561198043797392
p521
aV76561198019031513
p522
aV76561198018977133
p523
aV76561198063605749
p524
aV76561198018809436
p525
aV76561198017084105
p526
aV76561197969146977
p527
aV76561198052407630
p528
aV76561198068595005
p529
aV76561197980214737
p530
aV76561197972113127
p531
aV76561197988108931
p532
aV76561197961626972
p533
aV76561198017542603
p534
aV76561198027844455
p535
aV76561197960446090
p536
aV76561197966168270
p537
aV76561198165108262
p538
aV76561197971912415
p539
aV76561197993355938
p540
aV76561198009725160
p541
aV76561198022868830
p542
aV76561198061401141
p543
aV76561198119497204
p544
aV76561197961004028
p545
aV76561197984206319
p546
aV76561198128057659
p547
aV76561198137462602
p548
aV76561197982654273
p549
aV76561198015440976
p550
aV76561198032863572
p551
aV76561198252375290
p552
aV76561198019108597
p553
aV76561198002373958
p554
aV76561197969629124
p555
aV76561198157511391
p556
aV76561197977666593
p557
aV76561197978416236
p558
aV76561198259105732
p559
aV76561198000451642
p560
aV76561198018404720
p561
aV76561198028272041
p562
aV76561198027339790
p563
aV76561198075250724
p564
aV76561198035701259
p565
aV76561197977434845
p566
aV76561197979138413
p567
aV76561197961658209
p568
aV76561198022454574
p569
aV76561198024003019
p570
aV76561198046394849
p571
aV76561197986910464
p572
aV76561197988963752
p573
aV76561198044960868
p574
aV76561198040101975
p575
aV76561198097659827
p576
aV76561198142934856
p577
aV76561198028714940
p578
aV76561197971155056
p579
aV76561198040060595
p580
aV76561198035624486
p581
aV76561198051393347
p582
aV76561197964063474
p583
aV76561197960396557
p584
aV76561197970229907
p585
aV76561197971986125
p586
aV76561197998508301
p587
aV76561197999499083
p588
aV76561198141503887
p589
aV76561197988123006
p590
aV76561197999391389
p591
aV76561198025515521
p592
aV76561197970993702
p593
aV76561197995853734
p594
aV76561197977034310
p595
aV76561197988167333
p596
aV76561198276701493
p597
aV76561197963197529
p598
aV76561198019485073
p599
aV76561197993784184
p600
aV76561197993873384
p601
aV76561197972272617
p602
aV76561198008474464
p603
aV76561198089853824
p604
aV76561198202634318
p605
aV76561197968562576
p606
aV76561197970353935
p607
aV76561197961151660
p608
aV76561197999579501
p609
aV76561197969625094
p610
aV76561198043415196
p611
aV76561198063477365
p612
aV76561197993078243
p613
aV76561197974769179
p614
aV76561197961775001
p615
aV76561198147431241
p616
aV76561198083496035
p617
aV76561197960795320
p618
aV76561198071142425
p619
aV76561198062368884
p620
aV76561198030375832
p621
aV76561198037283482
p622
aV76561197981486172
p623
aV76561197961024330
p624
aV76561198122655033
p625
aV76561198058993000
p626
aV76561197985552996
p627
aV76561198019111093
p628
aV76561198034390148
p629
aV76561198094047757
p630
aV76561197962235172
p631
aV76561197988954191
p632
aV76561197992309826
p633
aV76561197963498197
p634
aV76561198237713038
p635
aV76561197989332206
p636
aV76561198183759003
p637
aV76561198012715654
p638
aV76561197974619242
p639
aV76561197966111693
p640
aV76561197969384267
p641
aV76561198047530700
p642
aV76561197961443646
p643
aV76561198028174026
p644
aV76561197960474141
p645
aV76561197981699254
p646
aV76561198046217560
p647
aV76561198123092002
p648
aV76561197993497029
p649
aV76561198036974680
p650
aV76561198072391802
p651
aV76561198079216931
p652
aV76561198070252113
p653
aV76561197991874591
p654
aV76561197984266176
p655
aV76561198179637839
p656
aV76561198015722063
p657
aV76561198012826099
p658
aV76561198043640535
p659
aV76561197988441878
p660
aV76561197962165966
p661
aV76561198002574424
p662
aV76561197992727873
p663
aV76561198083422243
p664
aV76561198032637462
p665
aV76561197982254207
p666
aV76561198050716013
p667
aV76561198008157871
p668
aV76561197962866860
p669
aV76561198074786927
p670
aV76561198015742373
p671
aV76561197988778155
p672
aV76561197978257825
p673
aV76561198054083417
p674
aV76561198035360363
p675
aV76561197973364253
p676
aV76561198055761502
p677
aV76561198224249744
p678
aV76561197984948506
p679
aV76561198061935175
p680
aV76561197963328643
p681
aV76561198039198507
p682
aV76561198062829265
p683
aV76561198115593892
p684
aV76561198004674628
p685
aV76561198010003965
p686
aV76561198049224378
p687
aV76561198051138480
p688
aV76561198237572126
p689
aV76561198114471129
p690
aV76561198011741258
p691
aV76561198067558575
p692
aV76561198049249102
p693
aV76561197970800139
p694
aV76561197994459127
p695
aV76561198001066224
p696
aV76561198048990329
p697
aV76561197964857719
p698
aV76561198012969546
p699
aV76561198000854660
p700
aV76561197998901946
p701
aV76561197994389235
p702
aV76561198056721029
p703
aV76561198008636981
p704
aV76561198134905334
p705
aV76561198174030981
p706
aV76561197990620700
p707
aV76561198005188857
p708
aV76561197970497494
p709
aV76561198002696013
p710
aV76561197970525314
p711
aV76561197969422003
p712
aV76561197993310247
p713
aV76561197975941271
p714
aV76561197978673769
p715
aV76561198006675573
p716
aV76561197994640832
p717
aV76561198039700859
p718
aV76561198203547612
p719
aV76561198045084344
p720
aV76561198001309440
p721
aV76561198121013010
p722
aV76561197993672532
p723
aV76561197976107944
p724
aV76561198059551414
p725
aV76561197976010518
p726
aV76561198060609218
p727
aV76561197974551749
p728
aV76561198095506155
p729
aV76561198046424576
p730
aV76561197960424274
p731
aV76561197961136991
p732
aV76561198010007018
p733
aV76561197978940233
p734
aV76561197986415512
p735
aV76561197972658841
p736
aV76561198082664930
p737
aV76561197972678665
p738
aV76561197981160519
p739
aV76561197982586873
p740
aV76561197971172512
p741
aV76561197961321970
p742
aV76561197964319315
p743
aV76561197966715730
p744
aV76561197962019123
p745
aV76561198009477939
p746
aV76561198018272576
p747
aV76561197962688755
p748
aV76561198007384604
p749
aV76561198025477662
p750
aV76561198123403048
p751
aV76561197972465457
p752
aV76561198021138141
p753
aV76561197962869768
p754
aV76561197993623984
p755
aV76561197981812714
p756
aV76561197977558490
p757
aV76561197972624766
p758
aV76561197991087496
p759
aV76561198005430411
p760
aV76561197995211201
p761
aV76561198129837159
p762
aV76561197973253239
p763
aV76561198082745384
p764
aV76561198242631976
p765
aV76561197990245605
p766
aV76561197971250426
p767
aV76561197991222710
p768
aV76561197981537951
p769
aV76561198024986684
p770
aV76561197996167121
p771
aV76561198042549977
p772
aV76561198010270724
p773
aV76561198036294463
p774
aV76561198001807885
p775
aV76561198005858370
p776
aV76561198170915635
p777
aV76561197969430711
p778
aV76561197975219943
p779
aV76561198025405138
p780
aV76561197978582323
p781
aV76561197993225115
p782
aV76561197963476302
p783
aV76561198172791883
p784
aV76561198003267431
p785
aV76561198053185854
p786
aV76561198061545533
p787
aV76561198007534323
p788
aV76561198008222110
p789
aV76561197990237053
p790
aV76561197977630895
p791
aV76561198013494294
p792
aV76561197970655644
p793
aV76561198280671115
p794
aV76561198001483488
p795
aV76561197960334789
p796
aV76561197967286847
p797
aV76561198000531664
p798
aV76561198018406043
p799
aV76561197972418856
p800
aV76561198014926853
p801
aV76561198027183966
p802
aV76561198035893386
p803
aV76561198174725843
p804
aV76561197973282545
p805
aV76561198021909831
p806
aV76561197975218124
p807
aV76561197972873323
p808
aV76561197961318355
p809
aV76561197984266584
p810
aV76561197986261290
p811
aV76561198202520317
p812
aV76561197961602735
p813
aV76561198124655586
p814
aV76561197961882774
p815
aV76561198046612339
p816
aV76561197968635966
p817
aV76561197993568706
p818
aV76561198048541867
p819
aV76561197982823731
p820
aV76561198071880119
p821
aV76561197989681485
p822
aV76561197962854554
p823
aV76561197980066523
p824
aV76561197972863602
p825
aV76561198146848455
p826
aV76561198109951019
p827
aV76561197985075777
p828
aV76561198006144986
p829
aV76561197961107984
p830
aV76561198027872601
p831
aV76561197992201523
p832
aV76561198092154451
p833
aV76561197961107982
p834
aV76561197988420971
p835
aV76561198020015149
p836
aV76561198004809158
p837
aV76561198092410314
p838
aV76561198068506815
p839
aV76561198001744164
p840
aV76561197998412468
p841
aV76561198049736540
p842
aV76561197982020034
p843
aV76561198006320407
p844
aV76561197966024438
p845
aV76561197975551839
p846
aV76561197964899048
p847
aV76561198207366544
p848
aV76561197962889452
p849
aV76561197993360902
p850
aV76561198030755637
p851
aV76561197967253145
p852
aV76561197986121705
p853
aV76561197961669499
p854
aV76561198067106331
p855
aV76561197979768689
p856
aV76561198103153654
p857
aV76561197962312067
p858
aV76561197968343660
p859
aV76561198121116636
p860
aV76561198001726631
p861
aV76561198020923184
p862
aV76561197972642613
p863
aV76561198044000673
p864
aV76561197968407977
p865
aV76561198056241616
p866
aV76561198048123786
p867
aV76561197968652513
p868
aV76561197962188532
p869
aV76561198026264755
p870
aV76561198053215131
p871
aV76561197989998557
p872
aV76561198029856319
p873
aV76561198002804360
p874
aV76561197970074635
p875
aV76561197969250301
p876
aV76561197961735270
p877
aV76561198048760014
p878
aV76561198035775455
p879
aV76561197962732683
p880
aV76561198025059660
p881
aV76561198000011741
p882
aV76561198011365678
p883
aV76561197989338535
p884
aV76561197993312895
p885
aV76561198000465768
p886
aV76561197976084416
p887
aV76561198012003685
p888
aV76561198091994228
p889
aV76561197994898667
p890
aV76561198074400092
p891
aV76561198037538263
p892
aV76561197997896278
p893
aV76561198021728628
p894
aV76561198034033843
p895
aV76561197960794453
p896
aV76561198027857262
p897
aV76561198023004830
p898
aV76561197993346543
p899
aV76561197968315198
p900
aV76561198102773859
p901
aV76561198164014172
p902
aV76561198071679948
p903
aV76561198010428252
p904
aV76561197970571311
p905
aV76561198055098560
p906
aV76561198077852271
p907
aV76561197984856627
p908
aV76561198114187349
p909
aV76561198038649535
p910
aV76561198070208829
p911
aV76561198007431320
p912
aV76561198120625035
p913
aV76561197982594330
p914
aV76561197993405294
p915
aV76561198120934123
p916
aV76561197960285344
p917
aV76561198025224096
p918
aV76561198089360705
p919
aV76561197966541300
p920
aV76561197972797487
p921
aV76561197972378200
p922
aV76561197961401472
p923
aV76561198272240209
p924
aV76561198028611071
p925
aV76561197976943280
p926
aV76561198001344383
p927
aV76561197962836633
p928
aV76561198067216641
p929
aV76561197981905266
p930
aV76561197989831870
p931
aV76561198069743571
p932
aV76561198003226447
p933
aV76561197962623838
p934
aV76561198009692194
p935
aV76561198011601327
p936
aV76561197962780574
p937
aV76561198072214187
p938
aV76561197975808606
p939
aV76561197994423680
p940
aV76561197990519125
p941
aV76561198084186699
p942
aV76561198043613240
p943
aV76561197989670672
p944
aV76561197972342680
p945
aV76561198046289156
p946
aV76561197983628230
p947
aV76561197961973029
p948
aV76561198011120156
p949
aV76561198025030714
p950
aV76561198041803660
p951
aV76561198019327736
p952
aV76561197975844870
p953
aV76561197968896982
p954
aV76561198020682018
p955
aV76561197974671157
p956
aV76561197992969512
p957
aV76561197995203145
p958
aV76561197961808030
p959
aV76561197964636813
p960
aV76561198029894076
p961
aV76561197974032960
p962
aV76561197980291359
p963
aV76561197983588662
p964
aV76561198021019785
p965
aV76561198191426313
p966
aV76561197983086874
p967
aV76561197962696699
p968
aV76561197963095647
p969
aV76561197996951410
p970
aV76561197970153261
p971
aV76561197991698163
p972
aV76561198169189022
p973
aV76561197966656969
p974
aV76561197987724798
p975
aV76561198028458584
p976
aV76561197963945613
p977
aV76561198179532837
p978
aV76561198125858657
p979
aV76561197974068971
p980
aV76561198165481732
p981
aV76561198042867197
p982
aV76561198158516892
p983
aV76561198016945513
p984
aV76561198005226275
p985
aV76561197981070927
p986
aV76561198006483387
p987
aV76561197962084260
p988
aV76561197970920297
p989
aV76561198254232100
p990
aV76561197977021579
p991
aV76561198024921218
p992
aV76561197971320495
p993
aV76561198020327690
p994
aV76561197962845096
p995
aV76561197968296369
p996
aV76561197970609123
p997
aV76561198128374569
p998
aV76561198079487441
p999
aV76561197997439293
p1000
aV76561198125371032
p1001
aV76561197961910186
p1002
aV76561197998702256
p1003
aV76561197961067204
p1004
aV76561198009653390
p1005
aV76561198006528632
p1006
aV76561197977727649
p1007
aV76561198239619638
p1008
aV76561198176643285
p1009
aV76561198051954591
p1010
aV76561198169026595
p1011
aV76561198115986019
p1012
aV76561197961321667
p1013
aV76561197961210059
p1014
aV76561197988002839
p1015
aV76561198035373060
p1016
aV76561198008300256
p1017
aV76561198017604243
p1018
aV76561198134350567
p1019
aV76561198024968073
p1020
aV76561197971036715
p1021
aV76561198002573400
p1022
aV76561198002379142
p1023
aV76561197967644791
p1024
aV76561198046724843
p1025
aV76561197983334028
p1026
atRp1027
.