c__builtin__
set
p1
((lp2
V76561197971737388
p3
aV76561198071241576
p4
aV76561197968471152
p5
aV76561198010270724
p6
aV76561197994773238
p7
aV76561198065062175
p8
aV76561198017084105
p9
aV76561198001807885
p10
aV76561197967288799
p11
aV76561197970732026
p12
aV76561198189115737
p13
aV76561197969430711
p14
aV76561198045456511
p15
aV76561197988108931
p16
aV76561197993333422
p17
aV76561197962949656
p18
aV76561198003267431
p19
aV76561197994530750
p20
aV76561198028960925
p21
aV76561198011065738
p22
aV76561197966168270
p23
aV76561197995449349
p24
aV76561197983991352
p25
aV76561197983829586
p26
aV76561198009725160
p27
aV76561198022868830
p28
aV76561198061401141
p29
aV76561198001094489
p30
aV76561198013494294
p31
aV76561197970655644
p32
aV76561197961673457
p33
aV76561198040194363
p34
aV76561198219494691
p35
aV76561197964034447
p36
aV76561198252375290
p37
aV76561198019108597
p38
aV76561197981070927
p39
aV76561198045043993
p40
aV76561197994374865
p41
aV76561197987149897
p42
aV76561197976107944
p43
aV76561197985095602
p44
aV76561197975218124
p45
aV76561197965125822
p46
aV76561197960427679
p47
aV76561198056065302
p48
aV76561198064464599
p49
aV76561198067216641
p50
aV76561197995700896
p51
aV76561198128057659
p52
aV76561198040101975
p53
aV76561197982823731
p54
aV76561197989681485
p55
aV76561198027534058
p56
aV76561197962854554
p57
aV76561197980066523
p58
aV76561198040060595
p59
aV76561198277345848
p60
aV76561198259514536
p61
aV76561197960396557
p62
aV76561198207786573
p63
aV76561197998508301
p64
aV76561198092410314
p65
aV76561198001744164
p66
aV76561198055098560
p67
aV76561197960785451
p68
aV76561197977034310
p69
aV76561197971518512
p70
aV76561197968060264
p71
aV76561197970609123
p72
aV76561197970473844
p73
aV76561197963197529
p74
aV76561198131973940
p75
aV76561197973980684
p76
aV76561198025393082
p77
aV76561197960424274
p78
aV76561197960530728
p79
aV76561198207366544
p80
aV76561198052407630
p81
aV76561198030755637
p82
aV76561198089853824
p83
aV76561198202634318
p84
aV76561197961669499
p85
aV76561197968562576
p86
aV76561197979768689
p87
aV76561198087790990
p88
aV76561198118768640
p89
aV76561198079487441
p90
aV76561197978017865
p91
aV76561197993497029
p92
aV76561197972518453
p93
aV76561198010501810
p94
aV76561197978257825
p95
aV76561197962847330
p96
aV76561197997896278
p97
aV76561198053411670
p98
aV76561198028714940
p99
aV76561197974523757
p100
aV76561197968652513
p101
aV76561198048123786
p102
aV76561197999256936
p103
aV76561198053215131
p104
aV76561197989998557
p105
aV76561198013088810
p106
aV76561197970074635
p107
aV76561197981486172
p108
aV76561197998724036
p109
aV76561198023790099
p110
aV76561198035775455
p111
aV76561198126351984
p112
aV76561197985552996
p113
aV76561198024347642
p114
aV76561198019111093
p115
aV76561197961159510
p116
aV76561198094047757
p117
aV76561197993312895
p118
aV76561198012826099
p119
aV76561197976084416
p120
aV76561198009653390
p121
aV76561197994898667
p122
aV76561197960425589
p123
aV76561197989332206
p124
aV76561198001656297
p125
aV76561198012715654
p126
aV76561197967476255
p127
aV76561197960794453
p128
aV76561198027857262
p129
aV76561197962394175
p130
aV76561198023004830
p131
aV76561198015205266
p132
aV76561198039660447
p133
aV76561197961443646
p134
aV76561198071679948
p135
aV76561198000140639
p136
aV76561198038920790
p137
aV76561198034390148
p138
aV76561197997176115
p139
aV76561197970571311
p140
aV76561197960674230
p141
aV76561198015033644
p142
aV76561197973455695
p143
aV76561198092154451
p144
aV76561198020834956
p145
aV76561198013483882
p146
aV76561198066393664
p147
aV76561198005512091
p148
aV76561198132774570
p149
aV76561198001168789
p150
aV76561198005951938
p151
aV76561198028226254
p152
aV76561198200077483
p153
aV76561197980135603
p154
aV76561198029991139
p155
aV76561197992727873
p156
aV76561197960272389
p157
aV76561198084207906
p158
aV76561197962836633
p159
aV76561198073617402
p160
aV76561198002696013
p161
aV76561198004355948
p162
aV76561197987332045
p163
aV76561198041041126
p164
aV76561197968639666
p165
aV76561198291256697
p166
aV76561198019930483
p167
aV76561197970920297
p168
aV76561197967644791
p169
aV76561198122655033
p170
aV76561197971036715
p171
aV76561198054083417
p172
aV76561197964921319
p173
aV76561198005858370
p174
aV76561197973364253
p175
aV76561198046185876
p176
aV76561197989670672
p177
aV76561198030879198
p178
aV76561198009692194
p179
aV76561198094311760
p180
aV76561198064165381
p181
aV76561198025030714
p182
aV76561198061935175
p183
aV76561198036774807
p184
aV76561198041803660
p185
aV76561198004411286
p186
aV76561198115593892
p187
aV76561198007301774
p188
aV76561198049224378
p189
aV76561198005220924
p190
aV76561198114471129
p191
aV76561198011741258
p192
aV76561198067558575
p193
aV76561198049249102
p194
aV76561198008157871
p195
aV76561197970343487
p196
aV76561198051767486
p197
aV76561198185932237
p198
aV76561198042998231
p199
aV76561198099071867
p200
aV76561198001324599
p201
aV76561198034144606
p202
aV76561198051669054
p203
aV76561198011365678
p204
aV76561197993188212
p205
aV76561197962696699
p206
aV76561198056721029
p207
aV76561197993240297
p208
aV76561197987784615
p209
aV76561197966656969
p210
aV76561197987724798
p211
aV76561197969422003
p212
aV76561198067230053
p213
aV76561198006675573
p214
aV76561197963703070
p215
aV76561198125858657
p216
aV76561197974068971
p217
aV76561198158516892
p218
aV76561197970828629
p219
aV76561197967661608
p220
aV76561197975403551
p221
aV76561197969422231
p222
aV76561197963498197
p223
aV76561198095506155
p224
aV76561197968296369
p225
aV76561197967785836
p226
aV76561198060596172
p227
aV76561197961136991
p228
aV76561198128374569
p229
aV76561198103153654
p230
aV76561198010007018
p231
aV76561197980364466
p232
aV76561197993025155
p233
aV76561198037283482
p234
aV76561197993133289
p235
aV76561198088433481
p236
aV76561198004575191
p237
aV76561197996689190
p238
aV76561197994246398
p239
aV76561198089049808
p240
aV76561197979436173
p241
aV76561198007384604
p242
aV76561197980499694
p243
aV76561198019084424
p244
aV76561198201709066
p245
aV76561197972465457
p246
aV76561198021138141
p247
aV76561197993623984
p248
aV76561198077924852
p249
aV76561197977558490
p250
aV76561197972301729
p251
aV76561197983588662
p252
aV76561197978416236
p253
aV76561198024968073
p254
aV76561197973253239
p255
aV76561197993223103
p256
aV76561198242631976
p257
aV76561198259105732
p258
aV76561198132587968
p259
aV76561198002379142
p260
aV76561198236128914
p261
aV76561197961697432
p262
aV76561197983334028
p263
atRp264
.