c__builtin__
set
p1
((lp2
V76561197999410144
p3
aV76561198282561060
p4
aV76561197960314108
p5
aV76561198040464395
p6
aV76561197967288799
p7
aV76561198000127691
p8
aV76561197990404765
p9
aV76561198023956576
p10
aV76561197970525520
p11
aV76561197966024128
p12
aV76561197993333422
p13
aV76561198027155822
p14
aV76561198003681707
p15
aV76561198011065738
p16
aV76561198062901582
p17
aV76561198000690999
p18
aV76561197993262226
p19
aV76561197971433883
p20
aV76561197989502084
p21
aV76561197985709312
p22
aV76561197963926152
p23
aV76561198003182575
p24
aV76561197974734393
p25
aV76561198000542077
p26
aV76561198219494691
p27
aV76561198183251345
p28
aV76561198164638152
p29
aV76561198082344211
p30
aV76561198011675330
p31
aV76561198094311760
p32
aV76561198092725189
p33
aV76561197970667119
p34
aV76561197998262794
p35
aV76561197985095602
p36
aV76561197970719922
p37
aV76561197970695997
p38
aV76561198017116693
p39
aV76561197960674686
p40
aV76561197997439637
p41
aV76561198004094876
p42
aV76561197987069658
p43
aV76561197991353218
p44
aV76561198165071150
p45
aV76561198045142306
p46
aV76561197973789995
p47
aV76561198038688267
p48
aV76561197996568988
p49
aV76561197960369701
p50
aV76561198075290432
p51
aV76561198009469261
p52
aV76561198009352626
p53
aV76561197975307549
p54
aV76561198011268959
p55
aV76561197986160375
p56
aV76561198003023091
p57
aV76561197967677049
p58
aV76561198207786573
p59
aV76561197996329142
p60
aV76561197970914857
p61
aV76561198016945492
p62
aV76561198080384101
p63
aV76561198013434531
p64
aV76561197973248946
p65
aV76561198059096121
p66
aV76561198046968632
p67
aV76561198078932731
p68
aV76561197984132089
p69
aV76561197967250398
p70
aV76561197985763037
p71
aV76561198006938324
p72
aV76561198005510850
p73
aV76561198025393082
p74
aV76561198148156997
p75
aV76561197970840205
p76
aV76561198150909378
p77
aV76561198001717226
p78
aV76561198056497091
p79
aV76561197961558433
p80
aV76561197998694107
p81
aV76561197999524488
p82
aV76561197960946851
p83
aV76561197961945609
p84
aV76561197990088197
p85
aV76561198039692167
p86
aV76561198010501810
p87
aV76561197993106740
p88
aV76561197963146925
p89
aV76561198029941795
p90
aV76561197977119261
p91
aV76561198037359363
p92
aV76561198010429366
p93
aV76561198136691828
p94
aV76561197969633521
p95
aV76561197973012231
p96
aV76561197999256936
p97
aV76561197993968353
p98
aV76561198003977450
p99
aV76561197992999675
p100
aV76561197987705590
p101
aV76561197972379086
p102
aV76561197970680513
p103
aV76561197985854658
p104
aV76561198037464489
p105
aV76561197975931878
p106
aV76561197987677282
p107
aV76561197961159510
p108
aV76561198046668990
p109
aV76561198033143457
p110
aV76561198114583700
p111
aV76561198011330079
p112
aV76561198009477939
p113
aV76561197962950676
p114
aV76561197972346185
p115
aV76561197961669293
p116
aV76561197983722049
p117
aV76561198028505516
p118
aV76561198021704067
p119
aV76561197972327636
p120
aV76561198170541993
p121
aV76561197968546017
p122
aV76561198030650206
p123
aV76561198047385882
p124
aV76561198010349881
p125
aV76561198160402879
p126
aV76561198038920790
p127
aV76561197995294124
p128
aV76561197975995446
p129
aV76561198143516576
p130
aV76561197978116601
p131
aV76561197979137216
p132
aV76561198020834956
p133
aV76561197972642613
p134
aV76561197996786231
p135
aV76561197987334191
p136
aV76561198132774570
p137
aV76561197996527227
p138
aV76561197968328842
p139
aV76561197981161861
p140
aV76561197996315014
p141
aV76561197982157782
p142
aV76561198029991139
p143
aV76561198019327736
p144
aV76561197982003876
p145
aV76561197970537481
p146
aV76561197980211482
p147
aV76561197990633527
p148
aV76561197995991404
p149
aV76561197961545594
p150
aV76561198019930483
p151
aV76561197978705833
p152
aV76561198079874343
p153
aV76561198005731501
p154
aV76561198105463335
p155
aV76561197989797966
p156
aV76561198169075447
p157
aV76561198025370371
p158
aV76561198033872215
p159
aV76561197965201685
p160
aV76561197961020145
p161
aV76561197965634989
p162
aV76561198292906823
p163
aV76561198009832656
p164
aV76561198095413196
p165
aV76561198119209605
p166
aV76561197995258254
p167
aV76561198030977364
p168
aV76561198040475461
p169
aV76561198001301106
p170
aV76561197988746820
p171
aV76561197961723380
p172
aV76561197981292734
p173
aV76561197993188212
p174
aV76561198070589084
p175
aV76561198165481732
p176
aV76561197993240297
p177
aV76561198198918239
p178
aV76561198055246742
p179
aV76561197987460981
p180
aV76561197987784615
p181
aV76561197985802442
p182
aV76561198168831004
p183
aV76561198004316947
p184
aV76561198048142353
p185
aV76561198215405260
p186
aV76561198031496909
p187
aV76561198136093259
p188
aV76561197971986125
p189
aV76561197988249637
p190
aV76561197967785836
p191
aV76561198060741402
p192
aV76561197970474632
p193
aV76561197960702144
p194
aV76561198082250512
p195
aV76561197980364466
p196
aV76561198108723836
p197
aV76561197993056229
p198
aV76561197981152374
p199
aV76561197999655432
p200
aV76561198009456009
p201
aV76561198019715364
p202
aV76561198011018463
p203
aV76561198217174553
p204
aV76561197993773428
p205
aV76561198057458704
p206
aV76561198018678113
p207
aV76561198094810413
p208
aV76561198019084424
p209
aV76561198008816046
p210
aV76561198037261676
p211
aV76561198025684025
p212
aV76561198028209930
p213
aV76561198001659518
p214
aV76561198006606185
p215
aV76561198045780470
p216
aV76561197985373583
p217
aV76561198077580104
p218
aV76561198027095858
p219
aV76561198102273203
p220
aV76561198049124836
p221
aV76561198004894164
p222
aV76561197970533653
p223
aV76561198034904020
p224
aV76561198024003019
p225
aV76561198225380924
p226
aV76561197960783588
p227
aV76561198014001659
p228
aV76561197987418963
p229
aV76561198003721211
p230
aV76561198002567010
p231
aV76561197993489089
p232
aV76561197993400479
p233
aV76561198053411670
p234
aV76561198030990427
p235
aV76561198043804860
p236
aV76561197962855745
p237
aV76561198056328414
p238
aV76561197968105565
p239
aV76561198049181202
p240
aV76561197983665689
p241
aV76561197981652477
p242
aV76561198092309896
p243
aV76561198003285824
p244
aV76561197992514022
p245
aV76561198103808124
p246
aV76561198023372611
p247
aV76561197993672532
p248
aV76561197987149897
p249
aV76561197990007172
p250
aV76561198034968838
p251
aV76561197992787146
p252
aV76561197987161067
p253
aV76561198053517056
p254
aV76561198006358545
p255
aV76561198116113453
p256
aV76561197991327027
p257
aV76561197977630895
p258
aV76561198060001046
p259
aV76561198024955076
p260
aV76561197993625854
p261
aV76561198071023718
p262
aV76561197987125661
p263
aV76561197983312166
p264
aV76561198010703690
p265
aV76561197971284350
p266
aV76561198054677241
p267
aV76561198014872213
p268
aV76561198107225336
p269
aV76561198271437708
p270
aV76561197960773771
p271
aV76561198054129575
p272
aV76561198037040479
p273
aV76561198066091256
p274
aV76561197972834470
p275
aV76561197966137091
p276
aV76561198262375661
p277
aV76561198018361831
p278
aV76561198026554712
p279
aV76561198010556112
p280
aV76561198027876320
p281
aV76561197966304173
p282
aV76561197960424615
p283
aV76561198015033644
p284
aV76561197989978555
p285
aV76561197960974092
p286
aV76561197999924406
p287
aV76561198038123330
p288
aV76561197996492996
p289
aV76561197991517882
p290
aV76561198010316574
p291
aV76561197970205755
p292
aV76561198008282253
p293
aV76561198006986671
p294
aV76561197994897879
p295
aV76561198142128836
p296
aV76561197978017865
p297
aV76561198198858425
p298
aV76561198057893557
p299
aV76561198062871945
p300
aV76561198002512012
p301
aV76561197965123158
p302
aV76561198007301774
p303
aV76561198007827722
p304
aV76561198238944444
p305
aV76561198030529988
p306
aV76561198053847807
p307
aV76561197977278209
p308
aV76561197982606336
p309
aV76561197998724036
p310
aV76561198015713957
p311
aV76561197994461824
p312
aV76561197995100111
p313
aV76561198126351984
p314
aV76561197971263397
p315
aV76561198052195832
p316
aV76561197965413640
p317
aV76561198272996697
p318
aV76561198073095242
p319
aV76561197982928473
p320
aV76561197998981889
p321
aV76561197967034012
p322
aV76561198030132429
p323
aV76561198141399970
p324
aV76561198040118754
p325
aV76561197992381707
p326
aV76561198045761317
p327
aV76561198018146388
p328
aV76561198022855022
p329
aV76561197970950436
p330
aV76561198155232891
p331
aV76561197965259554
p332
aV76561197960674230
p333
aV76561198055755451
p334
aV76561198004227532
p335
aV76561198040336677
p336
aV76561198009623663
p337
aV76561197960869818
p338
aV76561197964236740
p339
aV76561197961571605
p340
aV76561198008963688
p341
aV76561198024089089
p342
aV76561198028226254
p343
aV76561197960315154
p344
aV76561198164069970
p345
aV76561198008564002
p346
aV76561198008388637
p347
aV76561198123448506
p348
aV76561198102276481
p349
aV76561198042419561
p350
aV76561198039036945
p351
aV76561197981630216
p352
aV76561198128688479
p353
aV76561197992829234
p354
aV76561198055873935
p355
aV76561197999358805
p356
aV76561197972609099
p357
aV76561197975279528
p358
aV76561197998445101
p359
aV76561197961162735
p360
aV76561198119497204
p361
aV76561197962019458
p362
aV76561198005581193
p363
aV76561198064165381
p364
aV76561197998938811
p365
aV76561198025016976
p366
aV76561198094608595
p367
aV76561198074877568
p368
aV76561197971858937
p369
aV76561197994471437
p370
aV76561197980034116
p371
aV76561197979854568
p372
aV76561197970968420
p373
aV76561198039144783
p374
aV76561198006584622
p375
aV76561198009377316
p376
aV76561198051767486
p377
aV76561197994852658
p378
aV76561197981699254
p379
aV76561198025619731
p380
aV76561198001324599
p381
aV76561198089536602
p382
aV76561198088331259
p383
aV76561197978525946
p384
aV76561198006310782
p385
aV76561197968156993
p386
aV76561198030542325
p387
aV76561198081561657
p388
aV76561197960428458
p389
aV76561197992363366
p390
aV76561197993558949
p391
aV76561198008157233
p392
aV76561197972323790
p393
aV76561197961364447
p394
aV76561198052835471
p395
aV76561197965314597
p396
aV76561198184908935
p397
aV76561197961387022
p398
aV76561198016472824
p399
aV76561197980967645
p400
aV76561197973086581
p401
aV76561198009593444
p402
aV76561198109951019
p403
aV76561198189278302
p404
aV76561197970954186
p405
aV76561197960365496
p406
aV76561197993866245
p407
aV76561197970433601
p408
aV76561197962648488
p409
aV76561197998983827
p410
aV76561198105524489
p411
aV76561197993133289
p412
aV76561197962427552
p413
aV76561198029186103
p414
aV76561197992121222
p415
aV76561198077792775
p416
aV76561198010898534
p417
aV76561198113599062
p418
aV76561198001890355
p419
aV76561197969322619
p420
aV76561197977011494
p421
aV76561197960367965
p422
aV76561197961808030
p423
aV76561198002693527
p424
aV76561197992249723
p425
aV76561197968406667
p426
aV76561198005918121
p427
aV76561197977436280
p428
aV76561197961697432
p429
aV76561198007267213
p430
aV76561197992021927
p431
aV76561198017084105
p432
aV76561198021443244
p433
aV76561197980214737
p434
aV76561197963908081
p435
aV76561198017808996
p436
aV76561197980599453
p437
aV76561197960273751
p438
aV76561198011321953
p439
aV76561198028110442
p440
aV76561197966168270
p441
aV76561198013662416
p442
aV76561198098146721
p443
aV76561198047351357
p444
aV76561197961585446
p445
aV76561198008963413
p446
aV76561198011029202
p447
aV76561198043717056
p448
aV76561198035012389
p449
aV76561197960865022
p450
aV76561197995128577
p451
aV76561197982654273
p452
aV76561198032863572
p453
aV76561197972500100
p454
aV76561198211333896
p455
aV76561197961597966
p456
aV76561197977666593
p457
aV76561197978416236
p458
aV76561197976604355
p459
aV76561197960919682
p460
aV76561197962912493
p461
aV76561197968642114
p462
aV76561198034083498
p463
aV76561198027339790
p464
aV76561198045509344
p465
aV76561198035701259
p466
aV76561197977434845
p467
aV76561197961658209
p468
aV76561198068659475
p469
aV76561198037920028
p470
aV76561198064864530
p471
aV76561198011431788
p472
aV76561197997682707
p473
aV76561198051704078
p474
aV76561198042867197
p475
aV76561198097659827
p476
aV76561198142934856
p477
aV76561198028714940
p478
aV76561197971155056
p479
aV76561197965217721
p480
aV76561197974171022
p481
aV76561198025063326
p482
aV76561197977610791
p483
aV76561197960396557
p484
aV76561197970229907
p485
aV76561197989775660
p486
aV76561198141503887
p487
aV76561197988123006
p488
aV76561197999391389
p489
aV76561198129466790
p490
aV76561197970993702
p491
aV76561198060740142
p492
aV76561197995257096
p493
aV76561197993817003
p494
aV76561197967511249
p495
aV76561197988167333
p496
aV76561198009226261
p497
aV76561198021588300
p498
aV76561197962807062
p499
aV76561198245279172
p500
aV76561197987980943
p501
aV76561198012911924
p502
aV76561197970720878
p503
aV76561198102922141
p504
aV76561198202634318
p505
aV76561198001562251
p506
aV76561197968562576
p507
aV76561197972236024
p508
aV76561197987459540
p509
aV76561198003267431
p510
aV76561198024148149
p511
aV76561198126116185
p512
aV76561198063477365
p513
aV76561197961720051
p514
aV76561197993078243
p515
aV76561197973408738
p516
aV76561198031621457
p517
aV76561197989614247
p518
aV76561198034332058
p519
aV76561197972489348
p520
aV76561197994925737
p521
aV76561197962035302
p522
aV76561197961941273
p523
aV76561197987200815
p524
aV76561198222725176
p525
aV76561197961024330
p526
aV76561198009548639
p527
aV76561198025170911
p528
aV76561197996840397
p529
aV76561198058993000
p530
aV76561198011550002
p531
aV76561198013759970
p532
aV76561197998901946
p533
aV76561198094047757
p534
aV76561198030495805
p535
aV76561197964638668
p536
aV76561197989916313
p537
aV76561198012715654
p538
aV76561197963712383
p539
aV76561198006887955
p540
aV76561197969384267
p541
aV76561197991308748
p542
aV76561198028174026
p543
aV76561198013140612
p544
aV76561197978100239
p545
aV76561197992531901
p546
aV76561198123092002
p547
aV76561197961231095
p548
aV76561197969188008
p549
aV76561198036974680
p550
aV76561197966215444
p551
aV76561197977119060
p552
aV76561198057508265
p553
aV76561198062828591
p554
aV76561198083496035
p555
aV76561198015722063
p556
aV76561197995890853
p557
aV76561197987393146
p558
aV76561197988441878
p559
aV76561197962165966
p560
aV76561198002574424
p561
aV76561198083481811
p562
aV76561198032637462
p563
aV76561197970552333
p564
aV76561198050716013
p565
aV76561198046804483
p566
aV76561198008157871
p567
aV76561197987309187
p568
aV76561198027952382
p569
aV76561198168714000
p570
aV76561198001476746
p571
aV76561198036459585
p572
aV76561198014484458
p573
aV76561197984046938
p574
aV76561197970560818
p575
aV76561197971036715
p576
aV76561198054083417
p577
aV76561197964095173
p578
aV76561197973364253
p579
aV76561197993176847
p580
aV76561198224249744
p581
aV76561198061935175
p582
aV76561198039198507
p583
aV76561198062829265
p584
aV76561198055266895
p585
aV76561198237572126
p586
aV76561197970683335
p587
aV76561198076605030
p588
aV76561197964515631
p589
aV76561198172247146
p590
aV76561198037126143
p591
aV76561197970800139
p592
aV76561197993550423
p593
aV76561197993263934
p594
aV76561197988703902
p595
aV76561197962677192
p596
aV76561197989503021
p597
aV76561197966077684
p598
aV76561198036249999
p599
aV76561197960526945
p600
aV76561198076331787
p601
aV76561198008636981
p602
aV76561197980241016
p603
aV76561197983084684
p604
aV76561197961229565
p605
aV76561197985688909
p606
aV76561198002211317
p607
aV76561198015865552
p608
aV76561197970497494
p609
aV76561197993211113
p610
aV76561197979474036
p611
aV76561197970525314
p612
aV76561198129643193
p613
aV76561197969080419
p614
aV76561197978673769
p615
aV76561198006675573
p616
aV76561198015955823
p617
aV76561198039700859
p618
aV76561197971622983
p619
aV76561198045084344
p620
aV76561198179543479
p621
aV76561198018673205
p622
aV76561197970412946
p623
aV76561198000584834
p624
aV76561197980108078
p625
aV76561198095506155
p626
aV76561197971382815
p627
aV76561198046424576
p628
aV76561198144514273
p629
aV76561197967545422
p630
aV76561198089764131
p631
aV76561198032646317
p632
aV76561197984445790
p633
aV76561198002807198
p634
aV76561197966715730
p635
aV76561197962019123
p636
aV76561197982914312
p637
aV76561197986919228
p638
aV76561197970797996
p639
aV76561198025045117
p640
aV76561197962869768
p641
aV76561197993623984
p642
aV76561198028799685
p643
aV76561198056520439
p644
aV76561197995211201
p645
aV76561198080967416
p646
aV76561197990716133
p647
aV76561197973253239
p648
aV76561198082745384
p649
aV76561198126234879
p650
aV76561197976438430
p651
aV76561198077896887
p652
aV76561197993151459
p653
aV76561197991222710
p654
aV76561197981537951
p655
aV76561198024986684
p656
aV76561197961669734
p657
aV76561197996167121
p658
aV76561198010270724
p659
aV76561198036294463
p660
aV76561197967706781
p661
aV76561198001807885
p662
aV76561198076695302
p663
aV76561198170915635
p664
aV76561197984578570
p665
aV76561197975219943
p666
aV76561198072819971
p667
aV76561197963558934
p668
aV76561197993225115
p669
aV76561197963476302
p670
aV76561198029543356
p671
aV76561198128905770
p672
aV76561197961151660
p673
aV76561198053185854
p674
aV76561197978378836
p675
aV76561198008222110
p676
aV76561198118660292
p677
aV76561197990237053
p678
aV76561198013494294
p679
aV76561197968005714
p680
aV76561197970655644
p681
aV76561198280671115
p682
aV76561198007297562
p683
aV76561197989356603
p684
aV76561197967286847
p685
aV76561198018406043
p686
aV76561197972418856
p687
aV76561197970537526
p688
aV76561198072330588
p689
aV76561198174725843
p690
aV76561198101998147
p691
aV76561197973282545
p692
aV76561197975218124
p693
aV76561197990854830
p694
aV76561197965591196
p695
aV76561198021909831
p696
aV76561198043874185
p697
aV76561197968635966
p698
aV76561197987805565
p699
aV76561197993568706
p700
aV76561197982823731
p701
aV76561198040646283
p702
aV76561197962854554
p703
aV76561197980066523
p704
aV76561198072499795
p705
aV76561197988885252
p706
aV76561197975072106
p707
aV76561197961107984
p708
aV76561197998392509
p709
aV76561198000547117
p710
aV76561197992201523
p711
aV76561198038649535
p712
aV76561197961107982
p713
aV76561197961691525
p714
aV76561198020015149
p715
aV76561198125544926
p716
aV76561198068506815
p717
aV76561198028499918
p718
aV76561197971072609
p719
aV76561198049736540
p720
aV76561197982020034
p721
aV76561197975551839
p722
aV76561197961742151
p723
aV76561198000239727
p724
aV76561197985482605
p725
aV76561198014986557
p726
aV76561198038442289
p727
aV76561197962163618
p728
aV76561197984013429
p729
aV76561198009312693
p730
aV76561197961496877
p731
aV76561198067106331
p732
aV76561198004194925
p733
aV76561197962312067
p734
aV76561198083453292
p735
aV76561197992965701
p736
aV76561198033163332
p737
aV76561198020923184
p738
aV76561198015608495
p739
aV76561198025156112
p740
aV76561197993894160
p741
aV76561197991094878
p742
aV76561198059522684
p743
aV76561198005988106
p744
aV76561197968652513
p745
aV76561197983383107
p746
aV76561198026264755
p747
aV76561198005817107
p748
aV76561198053215131
p749
aV76561197989998557
p750
aV76561198029856319
p751
aV76561197970074635
p752
aV76561198124731333
p753
aV76561198004762872
p754
aV76561197963101709
p755
aV76561197962732683
p756
aV76561198112612473
p757
aV76561197975237646
p758
aV76561197963506690
p759
aV76561198055516702
p760
aV76561198000011741
p761
aV76561197986182211
p762
aV76561198086980652
p763
aV76561197994915959
p764
aV76561197997257085
p765
aV76561197996527741
p766
aV76561197967476255
p767
aV76561197972427231
p768
aV76561197963980822
p769
aV76561197991436137
p770
aV76561198034033843
p771
aV76561197967851889
p772
aV76561198027857262
p773
aV76561198028406339
p774
aV76561198023717754
p775
aV76561198071679948
p776
aV76561197982124693
p777
aV76561198015468894
p778
aV76561198099419189
p779
aV76561198033989749
p780
aV76561198083825463
p781
aV76561198037751931
p782
aV76561197969482155
p783
aV76561197968402250
p784
aV76561198088848853
p785
aV76561198131569825
p786
aV76561198045891247
p787
aV76561198015468419
p788
aV76561197960285344
p789
aV76561198196465609
p790
aV76561197976435963
p791
aV76561197980393481
p792
aV76561197991894500
p793
aV76561197973219538
p794
aV76561198018093097
p795
aV76561198272240209
p796
aV76561197967097006
p797
aV76561198001344383
p798
aV76561197974492054
p799
aV76561198002696013
p800
aV76561198021392200
p801
aV76561197961556642
p802
aV76561197965850277
p803
aV76561197963685332
p804
aV76561197964620118
p805
aV76561198164970009
p806
aV76561197967458872
p807
aV76561197960567890
p808
aV76561198011101541
p809
aV76561197963857009
p810
aV76561197967850918
p811
aV76561198018809436
p812
aV76561197966192904
p813
aV76561197972342680
p814
aV76561197983628230
p815
aV76561198037742833
p816
aV76561197996813462
p817
aV76561197966486960
p818
aV76561197974671157
p819
aV76561197982059308
p820
aV76561197995203145
p821
aV76561197995790842
p822
aV76561198015567897
p823
aV76561197993328810
p824
aV76561198002400990
p825
aV76561198119655891
p826
aV76561198025252905
p827
aV76561198001002129
p828
aV76561197999753476
p829
aV76561197963095647
p830
aV76561197994941821
p831
aV76561197970153261
p832
aV76561197991698163
p833
aV76561198024325467
p834
aV76561198190459038
p835
aV76561197987129946
p836
aV76561198068380964
p837
aV76561198028458584
p838
aV76561197963945613
p839
aV76561198179532837
p840
aV76561198027260451
p841
aV76561197978582323
p842
aV76561197962862890
p843
aV76561198064132702
p844
aV76561198016945513
p845
aV76561198005226275
p846
aV76561197996843863
p847
aV76561198146896738
p848
aV76561197969115526
p849
aV76561198024377776
p850
aV76561198031602304
p851
aV76561197971867928
p852
aV76561198020327690
p853
aV76561197962845096
p854
aV76561197968296369
p855
aV76561197970609123
p856
aV76561198027092946
p857
aV76561197967253145
p858
aV76561198103153654
p859
aV76561197968407977
p860
aV76561197972469525
p861
aV76561198055450798
p862
aV76561198005889858
p863
aV76561198088801208
p864
aV76561198006528632
p865
aV76561197966357360
p866
aV76561198061175550
p867
aV76561198044628140
p868
aV76561198176643285
p869
aV76561197974639453
p870
aV76561197970678807
p871
aV76561198051394869
p872
aV76561198001166733
p873
aV76561198024968073
p874
aV76561198051375116
p875
aV76561197994073917
p876
aV76561198049466825
p877
aV76561197972766008
p878
aV76561198026835214
p879
aV76561197961003356
p880
aV76561198009394826
p881
aV76561197996563753
p882
aV76561197998530400
p883
aV76561198010553848
p884
aV76561197995385433
p885
aV76561198030375832
p886
aV76561198081323076
p887
aV76561198001630218
p888
aV76561197997169030
p889
aV76561197984262280
p890
aV76561198064919278
p891
aV76561197991823739
p892
aV76561197986329968
p893
aV76561198110400637
p894
aV76561198067833344
p895
aV76561198024992066
p896
aV76561198079968022
p897
aV76561197977835056
p898
aV76561197983829586
p899
aV76561198034786827
p900
aV76561197970869150
p901
aV76561198000531664
p902
aV76561197992322895
p903
aV76561198013364500
p904
aV76561198021920665
p905
aV76561197993376012
p906
aV76561197984033806
p907
aV76561198011301171
p908
aV76561197975113236
p909
aV76561198063791908
p910
aV76561197989338535
p911
aV76561197994374865
p912
aV76561197960463886
p913
aV76561198169301568
p914
aV76561197986511603
p915
aV76561198117012327
p916
aV76561198043773827
p917
aV76561198019391823
p918
aV76561197960427679
p919
aV76561197979313128
p920
aV76561198085250809
p921
aV76561197963977234
p922
aV76561197963298399
p923
aV76561197962522194
p924
aV76561197964187767
p925
aV76561197998532163
p926
aV76561198019052925
p927
aV76561197973109017
p928
aV76561197960449239
p929
aV76561198228094896
p930
aV76561198012305926
p931
aV76561198244328766
p932
aV76561198019330902
p933
aV76561198052850714
p934
aV76561198003018835
p935
aV76561197984649314
p936
aV76561198088485359
p937
aV76561198018802100
p938
aV76561197962752646
p939
aV76561197994699510
p940
aV76561197960785451
p941
aV76561198082080139
p942
aV76561197971518512
p943
aV76561198000963443
p944
aV76561198113439488
p945
aV76561198020534852
p946
aV76561198115726122
p947
aV76561198075673900
p948
aV76561198006683262
p949
aV76561198047473315
p950
aV76561198173527711
p951
aV76561198087790990
p952
aV76561198014461013
p953
aV76561198037043295
p954
aV76561198075250724
p955
aV76561198042301775
p956
aV76561198110229696
p957
aV76561198037885890
p958
aV76561198191981333
p959
aV76561197991499536
p960
aV76561198002791437
p961
aV76561198074508809
p962
aV76561198070633921
p963
aV76561197975347475
p964
aV76561197966020667
p965
aV76561198190545555
p966
aV76561198042342205
p967
aV76561197998182682
p968
aV76561197960561066
p969
aV76561197987101204
p970
aV76561198052283526
p971
aV76561198014640368
p972
aV76561197982611376
p973
aV76561197968186350
p974
aV76561198152680499
p975
aV76561198080922048
p976
aV76561198029894076
p977
aV76561198000511094
p978
aV76561197983099254
p979
aV76561198061401141
p980
aV76561197960334789
p981
aV76561198039660447
p982
aV76561198167529851
p983
aV76561198005881923
p984
aV76561198076537651
p985
aV76561197972863602
p986
aV76561198209145085
p987
aV76561197963126943
p988
aV76561198059351003
p989
aV76561198035969916
p990
aV76561198018724476
p991
aV76561198003644599
p992
aV76561198077852271
p993
aV76561197962235172
p994
aV76561198200077483
p995
aV76561197971073691
p996
aV76561197989393339
p997
aV76561198084207906
p998
aV76561197970572919
p999
aV76561197977625776
p1000
aV76561198004355948
p1001
aV76561197977669531
p1002
aV76561198025156771
p1003
aV76561197968639666
p1004
aV76561198049102292
p1005
aV76561198171720254
p1006
aV76561198036489508
p1007
aV76561198006268171
p1008
aV76561197961733224
p1009
aV76561198179180834
p1010
aV76561198018098569
p1011
aV76561198064621610
p1012
aV76561198086748522
p1013
aV76561197989520216
p1014
aV76561198064550688
p1015
aV76561198048465187
p1016
aV76561198006842531
p1017
aV76561198021427936
p1018
aV76561198027136465
p1019
aV76561197966968026
p1020
aV76561197968557133
p1021
aV76561198130205878
p1022
aV76561198010365481
p1023
aV76561197992833928
p1024
aV76561197968088107
p1025
aV76561197975460129
p1026
aV76561197968205208
p1027
aV76561197994321360
p1028
aV76561198020694517
p1029
aV76561198045765167
p1030
aV76561197960637462
p1031
aV76561198130207343
p1032
aV76561197972498293
p1033
aV76561198011365678
p1034
aV76561198001363160
p1035
aV76561198200071502
p1036
aV76561197972666687
p1037
aV76561197996282435
p1038
aV76561198040510233
p1039
aV76561197964111921
p1040
aV76561198081488205
p1041
aV76561197994009182
p1042
aV76561197963729451
p1043
aV76561197995425330
p1044
aV76561198037690907
p1045
aV76561197973751341
p1046
aV76561198137359357
p1047
aV76561198038469652
p1048
aV76561197962234023
p1049
aV76561197962436817
p1050
aV76561197994669073
p1051
aV76561198007262793
p1052
aV76561198079776753
p1053
aV76561197969422231
p1054
aV76561198045185811
p1055
aV76561198161438391
p1056
aV76561198028124015
p1057
aV76561198004378747
p1058
aV76561197969629124
p1059
aV76561197968668406
p1060
aV76561197986858595
p1061
aV76561198001026636
p1062
aV76561198071624363
p1063
aV76561198254327111
p1064
aV76561197996689190
p1065
aV76561198032700715
p1066
aV76561198004432525
p1067
aV76561198001925172
p1068
aV76561197979436173
p1069
aV76561198020075055
p1070
aV76561198174390514
p1071
aV76561197997896278
p1072
aV76561197960314979
p1073
aV76561198004664163
p1074
aV76561197972301729
p1075
aV76561197984492843
p1076
aV76561198004035004
p1077
aV76561197978484619
p1078
aV76561197980088134
p1079
aV76561197995603835
p1080
aV76561197979326931
p1081
aV76561197971912415
p1082
aV76561197974963149
p1083
aV76561198188654703
p1084
aV76561198061152429
p1085
aV76561198006291246
p1086
aV76561198053256645
p1087
aV76561198189115737
p1088
aV76561198030034375
p1089
aV76561198025257341
p1090
aV76561197999684291
p1091
aV76561197979893489
p1092
aV76561198099031907
p1093
aV76561197974440026
p1094
aV76561198051916098
p1095
aV76561198062368884
p1096
aV76561197996720974
p1097
aV76561198058587790
p1098
aV76561197961673457
p1099
aV76561198035360363
p1100
aV76561198040521675
p1101
aV76561198004674628
p1102
aV76561197961023902
p1103
aV76561198045063921
p1104
aV76561198014218412
p1105
aV76561197991260715
p1106
aV76561198183272742
p1107
aV76561198060609218
p1108
aV76561197967472937
p1109
aV76561198080530732
p1110
aV76561198010870696
p1111
aV76561198014674983
p1112
aV76561197962780574
p1113
aV76561198260178505
p1114
aV76561198009357306
p1115
aV76561197991613990
p1116
aV76561197987551401
p1117
aV76561197961218376
p1118
aV76561197989090226
p1119
aV76561197973697469
p1120
aV76561198101210116
p1121
aV76561197995700896
p1122
aV76561197972251478
p1123
aV76561197960423569
p1124
aV76561197970927759
p1125
aV76561197970677661
p1126
aV76561197969094334
p1127
aV76561198042113071
p1128
aV76561197973902813
p1129
aV76561198102773859
p1130
aV76561197995410963
p1131
aV76561198002953633
p1132
aV76561197984069308
p1133
aV76561197961632199
p1134
aV76561198065742277
p1135
aV76561197962949656
p1136
aV76561197985576414
p1137
aV76561197970505130
p1138
aV76561197981071573
p1139
aV76561198010804994
p1140
aV76561198082825787
p1141
aV76561198001775466
p1142
aV76561198206694172
p1143
aV76561198092433100
p1144
aV76561198052505954
p1145
aV76561197974317817
p1146
aV76561197975253004
p1147
aV76561198000892308
p1148
aV76561198033989993
p1149
aV76561198011873501
p1150
aV76561197969387410
p1151
aV76561197972873323
p1152
aV76561198012931371
p1153
aV76561197962227238
p1154
aV76561198005164420
p1155
aV76561198227802016
p1156
aV76561198025120930
p1157
aV76561198014504977
p1158
aV76561197975140566
p1159
aV76561198052974271
p1160
aV76561198231002864
p1161
aV76561197960276439
p1162
aV76561197977683024
p1163
aV76561197965419171
p1164
aV76561198040786765
p1165
aV76561198019439592
p1166
aV76561197960538948
p1167
aV76561197969360202
p1168
aV76561198182166129
p1169
aV76561198179250466
p1170
aV76561198028611478
p1171
aV76561197970497708
p1172
aV76561197974853186
p1173
aV76561197999542987
p1174
aV76561197960677462
p1175
aV76561197970518462
p1176
aV76561198255182971
p1177
aV76561198033080141
p1178
aV76561198049827411
p1179
aV76561198092262731
p1180
aV76561198021649452
p1181
aV76561197990170607
p1182
aV76561198044886796
p1183
aV76561198015205266
p1184
aV76561198039068787
p1185
aV76561198210138405
p1186
aV76561198050550006
p1187
aV76561197976598405
p1188
aV76561197972679182
p1189
aV76561197997574225
p1190
aV76561197970973129
p1191
aV76561197961554629
p1192
aV76561198019190675
p1193
aV76561197985098502
p1194
aV76561197973455695
p1195
aV76561198006951608
p1196
aV76561198057419593
p1197
aV76561197984347116
p1198
aV76561198170391657
p1199
aV76561197993089189
p1200
aV76561198025089828
p1201
aV76561197988164601
p1202
aV76561198072214187
p1203
aV76561198116588825
p1204
aV76561197966597052
p1205
aV76561198004005708
p1206
aV76561197979977454
p1207
aV76561198247974420
p1208
aV76561197973211192
p1209
aV76561198090315560
p1210
aV76561198073617402
p1211
aV76561198004263567
p1212
aV76561198008935430
p1213
aV76561198008684621
p1214
aV76561197978358650
p1215
aV76561197987332045
p1216
aV76561197984052422
p1217
aV76561197966933021
p1218
aV76561198069462432
p1219
aV76561197961018144
p1220
aV76561198002973087
p1221
aV76561197998182096
p1222
aV76561198123643133
p1223
aV76561197996285496
p1224
aV76561197998514784
p1225
aV76561198165108262
p1226
aV76561198046185876
p1227
aV76561198001565256
p1228
aV76561197966550668
p1229
aV76561198114283095
p1230
aV76561198004411286
p1231
aV76561197971115936
p1232
aV76561198014614841
p1233
aV76561197989103694
p1234
aV76561198139708570
p1235
aV76561198005220924
p1236
aV76561197998550060
p1237
aV76561197981682818
p1238
aV76561197960446090
p1239
aV76561198150269464
p1240
aV76561198267789669
p1241
aV76561197965550925
p1242
aV76561197990089422
p1243
aV76561198127357245
p1244
aV76561198109524925
p1245
aV76561197960400202
p1246
aV76561197963636701
p1247
aV76561197967081911
p1248
aV76561197960307139
p1249
aV76561198011137213
p1250
aV76561197995069907
p1251
aV76561197989831870
p1252
aV76561197960444419
p1253
aV76561198031235648
p1254
aV76561197960690193
p1255
aV76561197963197529
p1256
aV76561198045029007
p1257
aV76561197963174456
p1258
aV76561198118127852
p1259
aV76561197966350283
p1260
aV76561197970828629
p1261
aV76561198008327608
p1262
aV76561198048075636
p1263
aV76561197960563759
p1264
aV76561197989451294
p1265
aV76561198008056386
p1266
aV76561198071882074
p1267
aV76561198012970516
p1268
aV76561197967582060
p1269
aV76561198015123738
p1270
aV76561198082438123
p1271
aV76561197995149223
p1272
aV76561198064769219
p1273
aV76561198002427208
p1274
aV76561197984481161
p1275
aV76561197969521110
p1276
aV76561198011636217
p1277
aV76561198114187349
p1278
aV76561198043185013
p1279
aV76561197986997573
p1280
aV76561198011937926
p1281
aV76561198003274528
p1282
aV76561197990747838
p1283
aV76561197993597689
p1284
aV76561198077924852
p1285
aV76561197962122299
p1286
aV76561197993618890
p1287
aV76561198017275832
p1288
aV76561198016346377
p1289
aV76561197970570973
p1290
aV76561197970576805
p1291
aV76561197991821457
p1292
aV76561197967938806
p1293
aV76561198041699540
p1294
aV76561197981809098
p1295
aV76561197993917078
p1296
aV76561197984795056
p1297
aV76561198002573400
p1298
aV76561198029413416
p1299
aV76561198018977133
p1300
aV76561198000321775
p1301
aV76561197983970221
p1302
aV76561197966727878
p1303
aV76561197964210556
p1304
aV76561198027644108
p1305
aV76561197986539876
p1306
aV76561197963296895
p1307
aV76561198122504114
p1308
aV76561197972728798
p1309
aV76561197993355938
p1310
aV76561198004486038
p1311
aV76561198015629148
p1312
aV76561198003255921
p1313
aV76561197964449274
p1314
aV76561197972055567
p1315
aV76561197985683081
p1316
aV76561197984206319
p1317
aV76561198080692175
p1318
aV76561198015440976
p1319
aV76561198014347830
p1320
aV76561198252375290
p1321
aV76561198043926043
p1322
aV76561197974654507
p1323
aV76561198014981534
p1324
aV76561198109367371
p1325
aV76561197963584187
p1326
aV76561197989462969
p1327
aV76561198259105732
p1328
aV76561197992053942
p1329
aV76561198028272041
p1330
aV76561197967166208
p1331
aV76561197962557487
p1332
aV76561197965006463
p1333
aV76561198022454574
p1334
aV76561198001741258
p1335
aV76561197996079055
p1336
aV76561198071178009
p1337
aV76561197993368096
p1338
aV76561198021959225
p1339
aV76561198131584961
p1340
aV76561197998416020
p1341
aV76561197963730488
p1342
aV76561198040101975
p1343
aV76561197991588032
p1344
aV76561197960534079
p1345
aV76561198038558711
p1346
aV76561198108558758
p1347
aV76561197994175819
p1348
aV76561198004988615
p1349
aV76561198010741189
p1350
aV76561197977034310
p1351
aV76561198276701493
p1352
aV76561197993024688
p1353
aV76561198024377442
p1354
aV76561198004920140
p1355
aV76561198018402054
p1356
aV76561198089853824
p1357
aV76561197970353935
p1358
aV76561198066376857
p1359
aV76561198010053705
p1360
aV76561197960432759
p1361
aV76561197962147233
p1362
aV76561197999579501
p1363
aV76561198043415196
p1364
aV76561197970569651
p1365
aV76561197967630277
p1366
aV76561197960412173
p1367
aV76561198006581585
p1368
aV76561198061166146
p1369
aV76561198059919203
p1370
aV76561198017283989
p1371
aV76561197993494129
p1372
aV76561198029564914
p1373
aV76561198186286431
p1374
aV76561198006441391
p1375
aV76561197995461953
p1376
aV76561198017701815
p1377
aV76561197995384279
p1378
aV76561197978733024
p1379
aV76561198018747944
p1380
aV76561198119829471
p1381
aV76561198075548112
p1382
aV76561198013520660
p1383
aV76561198019017312
p1384
aV76561197985552996
p1385
aV76561198034390148
p1386
aV76561197986439371
p1387
aV76561198005867654
p1388
aV76561197988954191
p1389
aV76561198082083315
p1390
aV76561198017176771
p1391
aV76561198025477662
p1392
aV76561197971944537
p1393
aV76561198025011721
p1394
aV76561197966111693
p1395
aV76561197981166855
p1396
aV76561197996287853
p1397
aV76561197962260487
p1398
aV76561198110854652
p1399
aV76561197965755669
p1400
aV76561197961284929
p1401
aV76561197992917396
p1402
aV76561197985254735
p1403
aV76561197978761434
p1404
aV76561197960474141
p1405
aV76561197961825122
p1406
aV76561197993203551
p1407
aV76561197993497029
p1408
aV76561198092990073
p1409
aV76561197967469613
p1410
aV76561198009204682
p1411
aV76561198079216931
p1412
aV76561197967346455
p1413
aV76561197992161333
p1414
aV76561197995379413
p1415
aV76561197966181190
p1416
aV76561198069743571
p1417
aV76561197990394363
p1418
aV76561197995626651
p1419
aV76561197992727873
p1420
aV76561198007743468
p1421
aV76561198039166425
p1422
aV76561197962866860
p1423
aV76561197972469461
p1424
aV76561198019970728
p1425
aV76561198041103324
p1426
aV76561197962289455
p1427
aV76561198166195691
p1428
aV76561198145907234
p1429
aV76561197988398291
p1430
aV76561198118701573
p1431
aV76561197988045100
p1432
aV76561197969360014
p1433
aV76561197960382142
p1434
aV76561198025201948
p1435
aV76561198165962071
p1436
aV76561197998815679
p1437
aV76561198037378134
p1438
aV76561197969360136
p1439
aV76561198001611837
p1440
aV76561197985873954
p1441
aV76561197987823676
p1442
aV76561197975874909
p1443
aV76561197985132599
p1444
aV76561198011741258
p1445
aV76561198049249102
p1446
aV76561197994459127
p1447
aV76561198048990329
p1448
aV76561198082289969
p1449
aV76561198060153590
p1450
aV76561197999453334
p1451
aV76561198024228259
p1452
aV76561197960370126
p1453
aV76561197989004876
p1454
aV76561197998823772
p1455
aV76561197992821939
p1456
aV76561197969533952
p1457
aV76561198193798105
p1458
aV76561198134905334
p1459
aV76561198174030981
p1460
aV76561197967941895
p1461
aV76561198119694288
p1462
aV76561198006026096
p1463
aV76561197993310247
p1464
aV76561197990185846
p1465
aV76561198071919079
p1466
aV76561197973511551
p1467
aV76561197990771062
p1468
aV76561198024226518
p1469
aV76561197963690843
p1470
aV76561197990854737
p1471
aV76561198050313141
p1472
aV76561198010232963
p1473
aV76561198025296761
p1474
aV76561198010007018
p1475
aV76561197968837132
p1476
aV76561197986415512
p1477
aV76561197981160048
p1478
aV76561197981160519
p1479
aV76561197997687316
p1480
aV76561197971172512
p1481
aV76561197989332206
p1482
aV76561198001682492
p1483
aV76561197990058367
p1484
aV76561198015603161
p1485
aV76561198115878258
p1486
aV76561198011302406
p1487
aV76561198000025602
p1488
aV76561197972465457
p1489
aV76561197978007852
p1490
aV76561197981812714
p1491
aV76561198181906385
p1492
aV76561197971688596
p1493
aV76561198005430411
p1494
aV76561197999414556
p1495
aV76561198068066323
p1496
aV76561197968331543
p1497
aV76561198032867242
p1498
aV76561197990245605
p1499
aV76561198025499596
p1500
aV76561197975685385
p1501
aV76561197990514995
p1502
aV76561197965106530
p1503
aV76561197995238640
p1504
aV76561197968600262
p1505
aV76561198061545533
p1506
aV76561198021948647
p1507
aV76561197964439845
p1508
aV76561198041594641
p1509
aV76561198111957006
p1510
aV76561197961972177
p1511
aV76561198049224378
p1512
aV76561197970092677
p1513
aV76561197993433320
p1514
aV76561197961322094
p1515
aV76561198016321002
p1516
aV76561197995070783
p1517
aV76561197960315100
p1518
aV76561198011702681
p1519
aV76561198181027038
p1520
aV76561198035893386
p1521
aV76561198031902740
p1522
aV76561198011547403
p1523
aV76561198202520317
p1524
aV76561197970748310
p1525
aV76561198035339885
p1526
aV76561198020704534
p1527
aV76561198046061716
p1528
aV76561198011946777
p1529
aV76561198014744922
p1530
aV76561197995384823
p1531
aV76561198048541867
p1532
aV76561198211667704
p1533
aV76561197964821756
p1534
aV76561198058323529
p1535
aV76561198004419700
p1536
aV76561197966903880
p1537
aV76561197976282829
p1538
aV76561197970025459
p1539
aV76561198031173796
p1540
aV76561198003227274
p1541
aV76561197976268686
p1542
aV76561198053177940
p1543
aV76561197987629628
p1544
aV76561198003510403
p1545
aV76561197961132524
p1546
aV76561198040892804
p1547
aV76561198003313194
p1548
aV76561198030755637
p1549
aV76561198083109455
p1550
aV76561197970110724
p1551
aV76561197997317378
p1552
aV76561198079487441
p1553
aV76561198262676489
p1554
aV76561197994094301
p1555
aV76561198080935133
p1556
aV76561198016732841
p1557
aV76561198206688747
p1558
aV76561197989880702
p1559
aV76561197964377351
p1560
aV76561198125371032
p1561
aV76561198006370086
p1562
aV76561198034254142
p1563
aV76561197990647986
p1564
aV76561198214999044
p1565
aV76561198018927770
p1566
aV76561197973484178
p1567
aV76561198050505012
p1568
aV76561198035775455
p1569
aV76561198096098474
p1570
aV76561198100315390
p1571
aV76561197961067204
p1572
aV76561198007261363
p1573
aV76561198042032347
p1574
aV76561198008005065
p1575
aV76561197961741055
p1576
aV76561198091994228
p1577
aV76561197994898667
p1578
aV76561198080594471
p1579
aV76561198002147454
p1580
aV76561198065072669
p1581
aV76561197960794453
p1582
aV76561197970532075
p1583
aV76561198044903945
p1584
aV76561198074414165
p1585
aV76561197968315198
p1586
aV76561198021352183
p1587
aV76561198010428252
p1588
aV76561198050615124
p1589
aV76561197970153769
p1590
aV76561197984856627
p1591
aV76561197982704394
p1592
aV76561197963058831
p1593
aV76561197984266176
p1594
aV76561198037463853
p1595
aV76561197993405294
p1596
aV76561197972376088
p1597
aV76561197998122705
p1598
aV76561198118850537
p1599
aV76561198009907180
p1600
aV76561198024953671
p1601
aV76561198000879763
p1602
aV76561197966541300
p1603
aV76561197972797487
p1604
aV76561197993559453
p1605
aV76561198003658028
p1606
aV76561197962836633
p1607
aV76561198015774082
p1608
aV76561197972342955
p1609
aV76561198051262786
p1610
aV76561197981905266
p1611
aV76561198012225955
p1612
aV76561198196147839
p1613
aV76561197993979850
p1614
aV76561198009692194
p1615
aV76561198011601327
p1616
aV76561198093430926
p1617
aV76561197975808606
p1618
aV76561197994423680
p1619
aV76561197966539330
p1620
aV76561198059681565
p1621
aV76561198015979922
p1622
aV76561198009306246
p1623
aV76561198056853446
p1624
aV76561198025030714
p1625
aV76561198059935734
p1626
aV76561198041803660
p1627
aV76561198133263115
p1628
aV76561198043835441
p1629
aV76561197990464499
p1630
aV76561197975844870
p1631
aV76561197968896982
p1632
aV76561198020682018
p1633
aV76561197963787730
p1634
aV76561198066651753
p1635
aV76561197960716083
p1636
aV76561197980291359
p1637
aV76561197984418593
p1638
aV76561198211704004
p1639
aV76561198087977690
p1640
aV76561198045807295
p1641
aV76561198014832701
p1642
aV76561198006899727
p1643
aV76561197996951410
p1644
aV76561198026017549
p1645
aV76561197974363272
p1646
aV76561197970091719
p1647
aV76561198016599679
p1648
aV76561197995862356
p1649
aV76561198158516892
p1650
aV76561197963915044
p1651
aV76561198145724171
p1652
aV76561197970920297
p1653
aV76561198254232100
p1654
aV76561197986790433
p1655
aV76561198031160003
p1656
aV76561197971362897
p1657
aV76561197990677609
p1658
aV76561198081000890
p1659
aV76561198019924975
p1660
aV76561197981237429
p1661
aV76561197988778155
p1662
aV76561197962305982
p1663
aV76561198009653390
p1664
aV76561198092340123
p1665
aV76561198004390507
p1666
aV76561197977727649
p1667
aV76561198033622471
p1668
aV76561198058790500
p1669
aV76561198000424905
p1670
aV76561198092670753
p1671
aV76561197967875677
p1672
aV76561197985834045
p1673
aV76561197988002839
p1674
aV76561198118654863
p1675
aV76561198035373060
p1676
aV76561198111391779
p1677
aV76561198024921218
p1678
aV76561197983334028
p1679
aV76561197961321667
p1680
aV76561197984913319
p1681
aV76561198046724843
p1682
aV76561197986749206
p1683
aV76561197960783502
p1684
aV76561198073465360
p1685
aV76561198010702067
p1686
aV76561198220744176
p1687
aV76561198133198804
p1688
aV76561198047751245
p1689
aV76561198080912220
p1690
aV76561197978805213
p1691
aV76561198172876435
p1692
aV76561197961963795
p1693
aV76561198066299018
p1694
aV76561198010962491
p1695
aV76561198032231514
p1696
aV76561198015088107
p1697
aV76561197973215391
p1698
aV76561198166593954
p1699
aV76561197992151624
p1700
aV76561197962605034
p1701
aV76561198031760142
p1702
aV76561198070255115
p1703
aV76561198291256697
p1704
aV76561197991376037
p1705
aV76561197960537679
p1706
aV76561197983311748
p1707
aV76561198208857660
p1708
aV76561197998477944
p1709
aV76561197966268467
p1710
aV76561197972517309
p1711
aV76561198050293582
p1712
aV76561197973264843
p1713
aV76561197980067055
p1714
aV76561197980135603
p1715
aV76561198200870962
p1716
aV76561197978514202
p1717
aV76561197963364765
p1718
aV76561197984948506
p1719
aV76561197980564568
p1720
aV76561198064464599
p1721
aV76561197963302376
p1722
aV76561198054636773
p1723
aV76561197992035791
p1724
aV76561198124825860
p1725
aV76561198062545540
p1726
aV76561198020215052
p1727
aV76561198179454225
p1728
aV76561198202649725
p1729
aV76561198061302636
p1730
aV76561197962394175
p1731
aV76561198028960925
p1732
aV76561198033674851
p1733
aV76561197972193416
p1734
aV76561197972271996
p1735
aV76561197970265001
p1736
aV76561198035587992
p1737
aV76561198028510635
p1738
aV76561198064852624
p1739
aV76561197970473844
p1740
aV76561198056139603
p1741
aV76561197996386860
p1742
aV76561198111710993
p1743
aV76561197982039922
p1744
aV76561198236128914
p1745
aV76561198009978119
p1746
aV76561197996643293
p1747
aV76561198062729654
p1748
aV76561197961217977
p1749
aV76561197994157941
p1750
aV76561198025674525
p1751
aV76561198080187730
p1752
aV76561197993019157
p1753
aV76561197983078723
p1754
aV76561198126378485
p1755
aV76561197964923081
p1756
aV76561197974769179
p1757
aV76561198023997059
p1758
aV76561198120115490
p1759
aV76561197979165027
p1760
aV76561198002524151
p1761
aV76561197960273138
p1762
aV76561197968258745
p1763
aV76561197993433042
p1764
aV76561198004742689
p1765
aV76561198023958584
p1766
aV76561198001694971
p1767
aV76561197982059438
p1768
aV76561197963225118
p1769
aV76561198196514225
p1770
aV76561197972145606
p1771
aV76561197982020011
p1772
aV76561198024789612
p1773
aV76561198029219313
p1774
aV76561198144531511
p1775
aV76561198083252732
p1776
aV76561198017716152
p1777
aV76561197971250426
p1778
aV76561197998902468
p1779
aV76561197961039315
p1780
aV76561198008387339
p1781
aV76561198000140639
p1782
aV76561198035358816
p1783
aV76561198040187869
p1784
aV76561198007435654
p1785
aV76561198025161695
p1786
aV76561198248378294
p1787
aV76561197960270691
p1788
aV76561198019971522
p1789
aV76561197981451399
p1790
aV76561197968378566
p1791
aV76561197970796706
p1792
aV76561197960301526
p1793
aV76561198004579456
p1794
aV76561197970506752
p1795
aV76561198004087479
p1796
aV76561198051002141
p1797
aV76561198081698290
p1798
aV76561198180873946
p1799
aV76561197996740690
p1800
aV76561197969390442
p1801
aV76561198015269892
p1802
aV76561197964921319
p1803
aV76561198012581428
p1804
aV76561197997075754
p1805
aV76561197996808168
p1806
aV76561197969075421
p1807
aV76561197992643007
p1808
aV76561198015100821
p1809
aV76561198000857331
p1810
aV76561198002795718
p1811
aV76561198077768326
p1812
aV76561198025264779
p1813
aV76561198058233288
p1814
aV76561198109747508
p1815
aV76561197985285900
p1816
aV76561198009422845
p1817
aV76561198094569894
p1818
aV76561197960277627
p1819
aV76561198007585794
p1820
aV76561197992588646
p1821
aV76561198059615949
p1822
aV76561198138138592
p1823
aV76561197994459215
p1824
aV76561198109192324
p1825
aV76561198178400623
p1826
aV76561197975278526
p1827
aV76561198036122125
p1828
aV76561198002425216
p1829
aV76561197967458755
p1830
aV76561198020742081
p1831
aV76561197969873384
p1832
aV76561198010635669
p1833
aV76561197993147883
p1834
aV76561197967661608
p1835
aV76561197995422559
p1836
aV76561197975403551
p1837
aV76561198077445537
p1838
aV76561197998457748
p1839
aV76561198036457803
p1840
aV76561198041702964
p1841
aV76561198004429398
p1842
aV76561197988911851
p1843
aV76561197963247353
p1844
aV76561197970549171
p1845
aV76561197974679019
p1846
aV76561198081010679
p1847
aV76561197970727512
p1848
aV76561198032581213
p1849
aV76561197994013416
p1850
aV76561198037638344
p1851
aV76561197998574440
p1852
aV76561198010547891
p1853
aV76561197963335830
p1854
aV76561198075096112
p1855
aV76561198033496057
p1856
aV76561197972548141
p1857
aV76561197991725710
p1858
aV76561198014911220
p1859
aV76561198047028856
p1860
aV76561198041112641
p1861
aV76561197993920956
p1862
aV76561197971737388
p1863
aV76561197971226398
p1864
aV76561197981076472
p1865
aV76561197968471152
p1866
aV76561197960568776
p1867
aV76561197979505346
p1868
aV76561198020402006
p1869
aV76561198246226298
p1870
aV76561198032534212
p1871
aV76561198004354800
p1872
aV76561197983813592
p1873
aV76561197979099026
p1874
aV76561198149895940
p1875
aV76561197974523757
p1876
aV76561198089817727
p1877
aV76561197992744258
p1878
aV76561198020193133
p1879
aV76561197997995318
p1880
aV76561198025015122
p1881
aV76561198141566113
p1882
aV76561198025854901
p1883
aV76561198049581293
p1884
aV76561198005733562
p1885
aV76561198024154676
p1886
aV76561198010275303
p1887
aV76561197982325126
p1888
aV76561197975713534
p1889
aV76561198065981138
p1890
aV76561197985528994
p1891
aV76561198180092154
p1892
aV76561197992699978
p1893
aV76561197965125822
p1894
aV76561198013847984
p1895
aV76561198075518992
p1896
aV76561197997643256
p1897
aV76561197961331755
p1898
aV76561198046942005
p1899
aV76561198160006885
p1900
aV76561197964776577
p1901
aV76561198030498876
p1902
aV76561197976599349
p1903
aV76561198027534058
p1904
aV76561197984823082
p1905
aV76561198035825814
p1906
aV76561198004989177
p1907
aV76561198277345848
p1908
aV76561197992383432
p1909
aV76561197970349685
p1910
aV76561197980105244
p1911
aV76561197973676264
p1912
aV76561197992511223
p1913
aV76561198016262889
p1914
aV76561198030784444
p1915
aV76561197971972173
p1916
aV76561197965107599
p1917
aV76561197970346898
p1918
aV76561197973980684
p1919
aV76561198005195298
p1920
aV76561198023690664
p1921
aV76561197960530728
p1922
aV76561197961136991
p1923
aV76561198008093950
p1924
aV76561198071241576
p1925
aV76561198203108246
p1926
aV76561198023142255
p1927
aV76561198212405280
p1928
aV76561198118768640
p1929
aV76561197981318991
p1930
aV76561198000929038
p1931
aV76561198018658312
p1932
aV76561197970884037
p1933
aV76561197972518453
p1934
aV76561197987117506
p1935
aV76561197972506592
p1936
aV76561198028739463
p1937
aV76561197971178098
p1938
aV76561197969060848
p1939
aV76561198007983364
p1940
aV76561197966414522
p1941
aV76561198007947403
p1942
aV76561198011459735
p1943
aV76561198132824184
p1944
aV76561198072296442
p1945
aV76561198008334637
p1946
aV76561197968705739
p1947
aV76561198049897705
p1948
aV76561198002847344
p1949
aV76561198058417490
p1950
aV76561197996227276
p1951
aV76561197987942764
p1952
aV76561197986177712
p1953
aV76561197971091040
p1954
aV76561197980499694
p1955
aV76561198065865684
p1956
aV76561197973754397
p1957
aV76561198042843540
p1958
aV76561198070549156
p1959
aV76561198060442957
p1960
aV76561198009626841
p1961
aV76561197974226116
p1962
aV76561197996249462
p1963
aV76561198138194493
p1964
aV76561197999249923
p1965
aV76561197974492910
p1966
aV76561197967210551
p1967
aV76561197999613204
p1968
aV76561197995208010
p1969
aV76561198006627018
p1970
aV76561198188196615
p1971
aV76561197968252417
p1972
aV76561197993008867
p1973
aV76561197984753877
p1974
aV76561198005512091
p1975
aV76561197968675426
p1976
aV76561198001168789
p1977
aV76561197980246098
p1978
aV76561198021744550
p1979
aV76561198018272576
p1980
aV76561198044882996
p1981
aV76561197995461143
p1982
aV76561197978942424
p1983
aV76561197964415046
p1984
aV76561197998556318
p1985
aV76561197982695415
p1986
aV76561197960999868
p1987
aV76561198025364374
p1988
aV76561197961132981
p1989
aV76561198026759613
p1990
aV76561197970165509
p1991
aV76561198049033750
p1992
aV76561197994688316
p1993
aV76561198045456511
p1994
aV76561198018296243
p1995
aV76561197989462937
p1996
aV76561198056003497
p1997
aV76561198033275333
p1998
aV76561198036774807
p1999
aV76561197976176542
p2000
aV76561198016942017
p2001
aV76561198003083965
p2002
aV76561198022224416
p2003
aV76561197960569701
p2004
aV76561197972403355
p2005
aV76561197968513121
p2006
aV76561198028937936
p2007
aV76561198042998231
p2008
aV76561197968059671
p2009
aV76561198040125773
p2010
aV76561198051669054
p2011
aV76561197979889800
p2012
aV76561197984433497
p2013
aV76561197994201868
p2014
aV76561198018138253
p2015
aV76561198028248811
p2016
aV76561198062287336
p2017
aV76561197989756864
p2018
aV76561198057136428
p2019
aV76561197981572057
p2020
aV76561197998380791
p2021
aV76561197971037390
p2022
aV76561197979144031
p2023
aV76561198159854665
p2024
aV76561197972570206
p2025
aV76561198012003685
p2026
aV76561198020767853
p2027
aV76561198002556957
p2028
aV76561197970916765
p2029
aV76561198013735252
p2030
aV76561197972375771
p2031
aV76561198039076741
p2032
aV76561198012932063
p2033
aV76561197997976089
p2034
aV76561198068372693
p2035
aV76561198119380189
p2036
aV76561197970565911
p2037
aV76561198132587968
p2038
aV76561197975495288
p2039
aV76561198007046887
p2040
aV76561198032043364
p2041
aV76561198048930184
p2042
aV76561197972289803
p2043
aV76561198063605749
p2044
aV76561197990344050
p2045
aV76561198078303162
p2046
aV76561198067128306
p2047
aV76561197970071283
p2048
aV76561197988108931
p2049
aV76561197991895745
p2050
aV76561198123683245
p2051
aV76561198042744166
p2052
aV76561197989412208
p2053
aV76561198024546447
p2054
aV76561197968646181
p2055
aV76561198009450581
p2056
aV76561198103943697
p2057
aV76561197994713508
p2058
aV76561197962023973
p2059
aV76561198014791750
p2060
aV76561197968493164
p2061
aV76561198218578816
p2062
aV76561198169567867
p2063
aV76561197978841722
p2064
aV76561197970513206
p2065
aV76561198005980162
p2066
aV76561197993460057
p2067
aV76561198037406381
p2068
aV76561197960542388
p2069
aV76561198086745402
p2070
aV76561198018404720
p2071
aV76561198080231698
p2072
aV76561197977614449
p2073
aV76561197981101623
p2074
aV76561198065861317
p2075
aV76561198046394849
p2076
aV76561197968320218
p2077
aV76561198038466390
p2078
aV76561197988963752
p2079
aV76561198044960868
p2080
aV76561198041964352
p2081
aV76561197965874019
p2082
aV76561198069003752
p2083
aV76561197998508301
p2084
aV76561198060695481
p2085
aV76561198025515521
p2086
aV76561197993205757
p2087
aV76561197973011974
p2088
aV76561197960325140
p2089
aV76561197962425660
p2090
aV76561198035923183
p2091
aV76561197970657581
p2092
aV76561197972405023
p2093
aV76561197967027353
p2094
aV76561198008474464
p2095
aV76561198152372567
p2096
aV76561198045360400
p2097
aV76561198019036767
p2098
aV76561198043093979
p2099
aV76561198201963938
p2100
aV76561197975812785
p2101
aV76561198048503798
p2102
aV76561197980154269
p2103
aV76561197970513191
p2104
aV76561197970929040
p2105
aV76561198195953643
p2106
aV76561197991093332
p2107
aV76561198147431241
p2108
aV76561197986128416
p2109
aV76561198165619940
p2110
aV76561198004586634
p2111
aV76561198078584265
p2112
aV76561198188726817
p2113
aV76561197994636988
p2114
aV76561198073988799
p2115
aV76561197972560000
p2116
aV76561198019111093
p2117
aV76561198067332538
p2118
aV76561198106330555
p2119
aV76561198060016449
p2120
aV76561198160835072
p2121
aV76561197963498197
p2122
aV76561198237713038
p2123
aV76561197982961134
p2124
aV76561198047530700
p2125
aV76561197979546794
p2126
aV76561198110264137
p2127
aV76561197962257762
p2128
aV76561198017024099
p2129
aV76561198172455023
p2130
aV76561197973963219
p2131
aV76561197963709965
p2132
aV76561197969348196
p2133
aV76561197973743697
p2134
aV76561198070252113
p2135
aV76561198016262855
p2136
aV76561198012601196
p2137
aV76561198025872241
p2138
aV76561198034144606
p2139
aV76561197987457600
p2140
aV76561197966115710
p2141
aV76561197962274785
p2142
aV76561198103211123
p2143
aV76561198043036441
p2144
aV76561197998156883
p2145
aV76561198176222889
p2146
aV76561198019535466
p2147
aV76561197961285469
p2148
aV76561197969960221
p2149
aV76561198111756281
p2150
aV76561198069638024
p2151
aV76561197968789907
p2152
aV76561198119647436
p2153
aV76561198115593892
p2154
aV76561198067558575
p2155
aV76561197998649526
p2156
aV76561198030853977
p2157
aV76561197997764420
p2158
aV76561198006065113
p2159
aV76561197991759130
p2160
aV76561198046575218
p2161
aV76561198056721029
p2162
aV76561198006449148
p2163
aV76561198049026934
p2164
aV76561197990620700
p2165
aV76561197981588648
p2166
aV76561197974589713
p2167
aV76561197969422003
p2168
aV76561197987066177
p2169
aV76561197968298548
p2170
aV76561198090565048
p2171
aV76561198203547612
p2172
aV76561197993459771
p2173
aV76561197960937642
p2174
aV76561197976107944
p2175
aV76561198001321706
p2176
aV76561198053504978
p2177
aV76561197974551749
p2178
aV76561197966692275
p2179
aV76561197977030973
p2180
aV76561197972556778
p2181
aV76561198164342688
p2182
aV76561197980408117
p2183
aV76561197982586873
p2184
aV76561198015613023
p2185
aV76561198014799032
p2186
aV76561198007384604
p2187
aV76561198030425291
p2188
aV76561197987331143
p2189
aV76561198063134371
p2190
aV76561197997510657
p2191
aV76561198044260497
p2192
aV76561197983311834
p2193
aV76561197964617800
p2194
aV76561198129837159
p2195
aV76561198168222733
p2196
aV76561197995675618
p2197
aV76561198003342703
p2198
aV76561197960457067
p2199
aV76561197970503978
p2200
aV76561198059480114
p2201
aV76561198071787525
p2202
aV76561198022868830
p2203
aV76561198068704953
p2204
aV76561198005858370
p2205
aV76561197991236602
p2206
aV76561198011606417
p2207
aV76561198164014172
p2208
aV76561197970835071
p2209
aV76561197991567427
p2210
aV76561198172791883
p2211
aV76561197981648709
p2212
aV76561198005147023
p2213
aV76561197982568782
p2214
aV76561197976097129
p2215
aV76561198010738322
p2216
aV76561197997154401
p2217
aV76561198007534323
p2218
aV76561198048586734
p2219
aV76561197984522476
p2220
aV76561197997000774
p2221
aV76561198072676303
p2222
aV76561198089133027
p2223
aV76561198004218901
p2224
aV76561198003606791
p2225
aV76561198043775637
p2226
aV76561197996353425
p2227
aV76561197999437622
p2228
aV76561197992810812
p2229
aV76561197997327926
p2230
aV76561198046421560
p2231
aV76561197971939923
p2232
aV76561197975929931
p2233
aV76561197984266584
p2234
aV76561198211732660
p2235
aV76561198041472443
p2236
aV76561198047105821
p2237
aV76561197990362314
p2238
aV76561198019778507
p2239
aV76561198005017701
p2240
aV76561197979652101
p2241
aV76561197964279410
p2242
aV76561197961801950
p2243
aV76561197961813813
p2244
aV76561197972197233
p2245
aV76561198071880119
p2246
aV76561198150430024
p2247
aV76561198051761055
p2248
aV76561197982132731
p2249
aV76561198005473274
p2250
aV76561197983437928
p2251
aV76561198267154558
p2252
aV76561197972140698
p2253
aV76561198027872601
p2254
aV76561198025589920
p2255
aV76561198092154451
p2256
aV76561198018659389
p2257
aV76561197961630515
p2258
aV76561198038611191
p2259
aV76561198072978530
p2260
aV76561198092410314
p2261
aV76561197971730480
p2262
aV76561198001744164
p2263
aV76561197998412468
p2264
aV76561197963264019
p2265
aV76561198035741015
p2266
aV76561197973928135
p2267
aV76561197977274853
p2268
aV76561198037508640
p2269
aV76561197979726481
p2270
aV76561198207366544
p2271
aV76561198047818808
p2272
aV76561197982333228
p2273
aV76561197972906039
p2274
aV76561197965840857
p2275
aV76561198009508285
p2276
aV76561197961669499
p2277
aV76561197979768689
p2278
aV76561198036886383
p2279
aV76561198018046407
p2280
aV76561197979812783
p2281
aV76561198001726631
p2282
aV76561198002685991
p2283
aV76561198188551126
p2284
aV76561197963175480
p2285
aV76561198013616630
p2286
aV76561197980466179
p2287
aV76561198044000673
p2288
aV76561197971175838
p2289
aV76561198025496432
p2290
aV76561198048123786
p2291
aV76561198021523047
p2292
aV76561197994773692
p2293
aV76561198048569073
p2294
aV76561198166083401
p2295
aV76561197969250301
p2296
aV76561198083136792
p2297
aV76561198048760014
p2298
aV76561197992850349
p2299
aV76561197976045267
p2300
aV76561197978539657
p2301
aV76561197972466991
p2302
aV76561198016510845
p2303
aV76561198273017443
p2304
aV76561198084625770
p2305
aV76561198111515224
p2306
aV76561198077635659
p2307
aV76561198018989837
p2308
aV76561197976084416
p2309
aV76561198002519057
p2310
aV76561198004434021
p2311
aV76561198074400092
p2312
aV76561198121259955
p2313
aV76561198008461236
p2314
aV76561198156600421
p2315
aV76561198080760027
p2316
aV76561198021728628
p2317
aV76561197964093623
p2318
aV76561197984805682
p2319
aV76561197988486601
p2320
aV76561197972786669
p2321
aV76561198023004830
p2322
aV76561197960303878
p2323
aV76561197961305196
p2324
aV76561198134336812
p2325
aV76561197981477796
p2326
aV76561198005655304
p2327
aV76561197970571311
p2328
aV76561198103936755
p2329
aV76561198070208829
p2330
aV76561198095138888
p2331
aV76561197990923829
p2332
aV76561197971802260
p2333
aV76561197960433256
p2334
aV76561198096224724
p2335
aV76561197969861128
p2336
aV76561197981223269
p2337
aV76561197976943280
p2338
aV76561198020468407
p2339
aV76561198080740997
p2340
aV76561197986444298
p2341
aV76561197962623838
p2342
aV76561197995702956
p2343
aV76561198001587957
p2344
aV76561197964116517
p2345
aV76561198052029929
p2346
aV76561198061999458
p2347
aV76561198031405787
p2348
aV76561197970310558
p2349
aV76561198019365381
p2350
aV76561197988348686
p2351
aV76561197961973029
p2352
aV76561198011120156
p2353
aV76561197970672107
p2354
aV76561198118763638
p2355
aV76561198000853836
p2356
aV76561198016581321
p2357
aV76561197992969512
p2358
aV76561198208155627
p2359
aV76561198044804806
p2360
aV76561197965684947
p2361
aV76561198077536611
p2362
aV76561198042114979
p2363
aV76561198023739037
p2364
aV76561197974155933
p2365
aV76561197976775693
p2366
aV76561197974032960
p2367
aV76561198031899468
p2368
aV76561197962143949
p2369
aV76561198028645194
p2370
aV76561197983588662
p2371
aV76561198191426313
p2372
aV76561197963815736
p2373
aV76561197962696699
p2374
aV76561198181924607
p2375
aV76561198022626918
p2376
aV76561197972117549
p2377
aV76561197961372255
p2378
aV76561198121748411
p2379
aV76561197966656969
p2380
aV76561197994890982
p2381
aV76561198026486182
p2382
aV76561198069611585
p2383
aV76561198002162584
p2384
aV76561198125858657
p2385
aV76561198042329819
p2386
aV76561197975012249
p2387
aV76561197960376021
p2388
aV76561198161089594
p2389
aV76561198003184279
p2390
aV76561198006483387
p2391
aV76561198002596690
p2392
aV76561197961882774
p2393
aV76561197967719172
p2394
aV76561197975197679
p2395
aV76561198084878664
p2396
aV76561198042755269
p2397
aV76561197964899048
p2398
aV76561198004629977
p2399
aV76561198002161176
p2400
aV76561198128374569
p2401
aV76561197973885188
p2402
aV76561197961172031
p2403
aV76561197997439293
p2404
aV76561198153440561
p2405
aV76561197998702256
p2406
aV76561198014446663
p2407
aV76561198111570299
p2408
aV76561197995494013
p2409
aV76561198031998550
p2410
aV76561197994726809
p2411
aV76561198099711981
p2412
aV76561197984122115
p2413
aV76561198051954591
p2414
aV76561197961271988
p2415
aV76561198115986019
p2416
aV76561197964447995
p2417
aV76561198076685792
p2418
aV76561198095143957
p2419
aV76561198008300256
p2420
aV76561198017604243
p2421
aV76561197997895952
p2422
aV76561197961917461
p2423
aV76561197972416354
p2424
aV76561198053034834
p2425
aV76561198183468825
p2426
aV76561197965488971
p2427
aV76561197963242311
p2428
aV76561198056863735
p2429
aV76561198065062175
p2430
aV76561198065410845
p2431
aV76561197963538533
p2432
aV76561197975122568
p2433
aV76561197973951363
p2434
aV76561198022462899
p2435
aV76561197969245607
p2436
aV76561198002732502
p2437
aV76561198018656251
p2438
aV76561198031629225
p2439
aV76561197994530750
p2440
aV76561198185581137
p2441
aV76561197983590669
p2442
aV76561198033102402
p2443
aV76561197964895837
p2444
aV76561197983991352
p2445
aV76561198027361188
p2446
aV76561198001094489
p2447
aV76561198048806155
p2448
aV76561197962004969
p2449
aV76561198048157659
p2450
aV76561198091556044
p2451
aV76561198040194363
p2452
aV76561197964547320
p2453
aV76561198030879198
p2454
aV76561198005538556
p2455
aV76561198083507653
p2456
aV76561197964034447
p2457
aV76561198045043993
p2458
aV76561198048699558
p2459
aV76561198100568414
p2460
aV76561197976243405
p2461
aV76561197963273542
p2462
aV76561198001445280
p2463
aV76561197987434214
p2464
aV76561198005150153
p2465
aV76561198056065302
p2466
aV76561198023043075
p2467
aV76561197981403870
p2468
aV76561197987395160
p2469
aV76561197967021298
p2470
aV76561197985526340
p2471
aV76561198142984691
p2472
aV76561197970352637
p2473
aV76561198035425258
p2474
aV76561198127555241
p2475
aV76561197995155295
p2476
aV76561198041705058
p2477
aV76561197975914985
p2478
aV76561198115054780
p2479
aV76561198259514536
p2480
aV76561197962625914
p2481
aV76561198085683496
p2482
aV76561197962691233
p2483
aV76561198003780636
p2484
aV76561197969625094
p2485
aV76561198045318754
p2486
aV76561198001088174
p2487
aV76561198040660540
p2488
aV76561198131973940
p2489
aV76561198023388037
p2490
aV76561198024249880
p2491
aV76561198024649718
p2492
aV76561197992333984
p2493
aV76561198024926759
p2494
aV76561197993181879
p2495
aV76561197969809821
p2496
aV76561198041869061
p2497
aV76561197961602735
p2498
aV76561197998512352
p2499
aV76561197973633019
p2500
aV76561197999234227
p2501
aV76561197962847330
p2502
aV76561197972053713
p2503
aV76561198001612171
p2504
aV76561198003429985
p2505
aV76561197970260562
p2506
aV76561198072391802
p2507
aV76561197998781766
p2508
aV76561198040214866
p2509
aV76561197995163832
p2510
aV76561198119466424
p2511
aV76561198185382774
p2512
aV76561198075002736
p2513
aV76561197966889532
p2514
aV76561197997832325
p2515
aV76561198164373288
p2516
aV76561198041063788
p2517
aV76561198123003722
p2518
aV76561198009946907
p2519
aV76561198012896364
p2520
aV76561197983684282
p2521
aV76561198047040238
p2522
aV76561198021862116
p2523
aV76561198059551414
p2524
aV76561198019160629
p2525
aV76561198006398630
p2526
aV76561198001656297
p2527
aV76561198086970958
p2528
aV76561198009725160
p2529
aV76561198199775751
p2530
aV76561197981717280
p2531
aV76561197962657363
p2532
aV76561197998795235
p2533
aV76561198017784537
p2534
aV76561197965486824
p2535
aV76561198124655586
p2536
aV76561197977056101
p2537
aV76561198182811791
p2538
aV76561197992841719
p2539
aV76561197993315061
p2540
aV76561197961004028
p2541
aV76561197995843610
p2542
aV76561198030618568
p2543
aV76561198011274377
p2544
aV76561198096402653
p2545
aV76561198013483882
p2546
aV76561197961312306
p2547
aV76561198063952484
p2548
aV76561198029098923
p2549
aV76561198007078627
p2550
aV76561198005951938
p2551
aV76561197976252748
p2552
aV76561197969258013
p2553
aV76561198206395041
p2554
aV76561197961769037
p2555
aV76561198012590280
p2556
aV76561197965336682
p2557
aV76561198017612485
p2558
aV76561197991889915
p2559
aV76561198041041126
p2560
aV76561197987724838
p2561
aV76561197971400807
p2562
aV76561198043920114
p2563
aV76561197976615939
p2564
aV76561198091219005
p2565
aV76561198044590226
p2566
aV76561198016825239
p2567
aV76561198048431234
p2568
aV76561197994247604
p2569
aV76561197999078873
p2570
aV76561198084649360
p2571
aV76561198003170737
p2572
aV76561197961411594
p2573
aV76561197999258380
p2574
aV76561197973306762
p2575
aV76561198000854933
p2576
aV76561197989708302
p2577
aV76561198000808108
p2578
aV76561197979425674
p2579
aV76561198041022677
p2580
aV76561198004545705
p2581
aV76561198185932237
p2582
aV76561198127888861
p2583
aV76561198051001549
p2584
aV76561198041983908
p2585
aV76561198099071867
p2586
aV76561198025384965
p2587
aV76561197975728136
p2588
aV76561197999836959
p2589
aV76561197982970488
p2590
aV76561197960575966
p2591
aV76561197995172364
p2592
aV76561198002068833
p2593
aV76561197972758826
p2594
aV76561198144195606
p2595
aV76561197969766591
p2596
aV76561198030804363
p2597
aV76561197990553956
p2598
aV76561198044831615
p2599
aV76561197962690766
p2600
aV76561198026191542
p2601
aV76561198067230053
p2602
aV76561198006731227
p2603
aV76561197966483758
p2604
aV76561198021756021
p2605
aV76561198025209818
p2606
aV76561198106560683
p2607
aV76561198027986549
p2608
aV76561198129960351
p2609
aV76561197970369608
p2610
aV76561197984440736
p2611
aV76561197970506892
p2612
aV76561197978732468
p2613
aV76561198015192809
p2614
aV76561197996101497
p2615
aV76561198206114500
p2616
aV76561198169641003
p2617
aV76561198088433481
p2618
aV76561198004575191
p2619
aV76561197994246398
p2620
aV76561197974779338
p2621
aV76561198095550426
p2622
aV76561197967175186
p2623
aV76561197967562322
p2624
aV76561198007053751
p2625
aV76561197979815912
p2626
aV76561198042843990
p2627
aV76561197970343487
p2628
aV76561197970498480
p2629
aV76561197987119773
p2630
aV76561198025522622
p2631
aV76561197993223103
p2632
aV76561198107343462
p2633
aV76561198043797392
p2634
aV76561198066161848
p2635
aV76561198021498717
p2636
aV76561197984546904
p2637
aV76561197960775544
p2638
aV76561197972439772
p2639
aV76561198160097076
p2640
aV76561198020778704
p2641
aV76561198129806157
p2642
aV76561198118370577
p2643
aV76561197976925875
p2644
aV76561198084182112
p2645
aV76561198094013988
p2646
aV76561198031183421
p2647
aV76561198149481207
p2648
aV76561198020896847
p2649
aV76561198023790099
p2650
aV76561197999632800
p2651
aV76561198032397492
p2652
aV76561197968545309
p2653
aV76561198099076295
p2654
aV76561198027878460
p2655
aV76561198092566893
p2656
aV76561198068595005
p2657
aV76561198190334951
p2658
aV76561198034491245
p2659
aV76561198014984505
p2660
aV76561197960424274
p2661
aV76561198021328348
p2662
aV76561198065934975
p2663
aV76561198049651172
p2664
aV76561198115667668
p2665
aV76561197986261290
p2666
aV76561198053337957
p2667
aV76561197996287125
p2668
aV76561197992389355
p2669
aV76561198003303073
p2670
aV76561197987722206
p2671
aV76561198002517665
p2672
aV76561197969454661
p2673
aV76561197995449349
p2674
aV76561198029494394
p2675
aV76561198025240720
p2676
aV76561198074206585
p2677
aV76561198030228115
p2678
aV76561198102171256
p2679
aV76561198100003017
p2680
aV76561197970342991
p2681
aV76561197971945862
p2682
aV76561198004131846
p2683
aV76561198085786538
p2684
aV76561197990593623
p2685
aV76561197984412825
p2686
aV76561197976010518
p2687
aV76561198055098560
p2688
aV76561197964351749
p2689
aV76561197960547966
p2690
aV76561198022345822
p2691
aV76561197970539211
p2692
aV76561197968060264
p2693
aV76561198067146662
p2694
aV76561198000923191
p2695
aV76561197992970445
p2696
aV76561197998548763
p2697
aV76561198028629216
p2698
aV76561198109370377
p2699
aV76561198052642215
p2700
aV76561197990857737
p2701
aV76561198077800554
p2702
aV76561198040958814
p2703
aV76561197995531648
p2704
aV76561197995132195
p2705
aV76561198179377587
p2706
aV76561198088014362
p2707
aV76561197993187591
p2708
aV76561198069091786
p2709
aV76561197983800399
p2710
aV76561197961735270
p2711
aV76561197968251543
p2712
aV76561197999278466
p2713
aV76561198002866442
p2714
aV76561198066393664
p2715
aV76561197974964086
p2716
aV76561198075074619
p2717
aV76561197986086081
p2718
aV76561197972038392
p2719
aV76561197979981362
p2720
aV76561198100561588
p2721
aV76561198000847343
p2722
aV76561198234146536
p2723
aV76561198013088810
p2724
aV76561198016523800
p2725
aV76561197960272389
p2726
aV76561198071579757
p2727
aV76561198126071147
p2728
aV76561197971562024
p2729
aV76561198024347642
p2730
aV76561197997176115
p2731
aV76561198062241572
p2732
aV76561197967764519
p2733
aV76561197960425589
p2734
aV76561197992108925
p2735
aV76561197999411338
p2736
aV76561198195879563
p2737
aV76561198011546973
p2738
aV76561197961401472
p2739
aV76561198009834421
p2740
aV76561197969154977
p2741
aV76561198084400684
p2742
aV76561197993025155
p2743
aV76561198060596172
p2744
aV76561197960609907
p2745
aV76561197968224881
p2746
aV76561198028228574
p2747
aV76561197995210450
p2748
aV76561198215186756
p2749
aV76561198037829060
p2750
aV76561198055357228
p2751
aV76561198003312030
p2752
aV76561197999499083
p2753
aV76561198008923998
p2754
aV76561198032691221
p2755
aV76561197983720215
p2756
aV76561198037111679
p2757
aV76561197961975505
p2758
aV76561197977305091
p2759
aV76561197979992245
p2760
aV76561197982238668
p2761
aV76561197965628348
p2762
aV76561197988040112
p2763
aV76561198277557491
p2764
aV76561198078098596
p2765
aV76561198246500288
p2766
aV76561198009347836
p2767
aV76561197998508483
p2768
aV76561197995697668
p2769
aV76561197964474480
p2770
aV76561198106958899
p2771
aV76561198028611071
p2772
aV76561198038933178
p2773
aV76561198030570222
p2774
aV76561198114357341
p2775
aV76561197964701755
p2776
aV76561197993092594
p2777
aV76561198040818125
p2778
aV76561198007823029
p2779
aV76561197996667011
p2780
aV76561198040710948
p2781
aV76561197994773238
p2782
aV76561198086240172
p2783
aV76561198069690590
p2784
aV76561198013892246
p2785
aV76561197964910687
p2786
aV76561198004127270
p2787
aV76561197986589105
p2788
aV76561197971404044
p2789
aV76561198004391880
p2790
aV76561197970323362
p2791
aV76561198179486329
p2792
aV76561198158285845
p2793
aV76561197971723755
p2794
aV76561198173635322
p2795
aV76561197971158539
p2796
aV76561197974927580
p2797
aV76561197970278385
p2798
aV76561197987161399
p2799
aV76561198003432064
p2800
aV76561198022058899
p2801
aV76561198026321435
p2802
aV76561197963287189
p2803
aV76561197963703070
p2804
aV76561197970732026
p2805
aV76561198039986405
p2806
aV76561198040059835
p2807
aV76561198108519211
p2808
aV76561198090951507
p2809
aV76561197988876853
p2810
aV76561197983123838
p2811
aV76561197960868372
p2812
aV76561197961098874
p2813
aV76561198062255175
p2814
aV76561197990246461
p2815
aV76561197971718399
p2816
aV76561197999498949
p2817
aV76561198089049808
p2818
aV76561198034053947
p2819
aV76561198112964102
p2820
aV76561197998999945
p2821
aV76561197962550562
p2822
aV76561198064831576
p2823
aV76561198027723405
p2824
aV76561197975241039
p2825
aV76561197960272739
p2826
aV76561198051301445
p2827
aV76561197984563822
p2828
aV76561197971942099
p2829
aV76561198194002895
p2830
aV76561198019031513
p2831
aV76561197967355838
p2832
aV76561198006366245
p2833
aV76561197960271420
p2834
aV76561198076183401
p2835
aV76561198067464936
p2836
aV76561198052407630
p2837
aV76561197972940251
p2838
aV76561197973263723
p2839
aV76561197960793796
p2840
aV76561197969763425
p2841
aV76561198002973855
p2842
aV76561198003377314
p2843
aV76561198027844455
p2844
aV76561198163663052
p2845
aV76561198012006684
p2846
aV76561197974333039
p2847
aV76561198124013101
p2848
aV76561198033853194
p2849
aV76561198020544661
p2850
aV76561198128057659
p2851
aV76561198137462602
p2852
aV76561198005813596
p2853
aV76561198121612771
p2854
aV76561198154973780
p2855
aV76561197966474067
p2856
aV76561198019108597
p2857
aV76561198048204997
p2858
aV76561198003174756
p2859
aV76561198175613179
p2860
aV76561197982282366
p2861
aV76561198141939953
p2862
aV76561198167034578
p2863
aV76561198006942451
p2864
aV76561198069011515
p2865
aV76561198122275272
p2866
aV76561197960280344
p2867
aV76561198188815519
p2868
aV76561197996430921
p2869
aV76561197963396045
p2870
aV76561197992785936
p2871
aV76561198040183255
p2872
aV76561198070219413
p2873
aV76561198065162735
p2874
aV76561197960787494
p2875
aV76561198021799526
p2876
aV76561198089360705
p2877
aV76561198043538180
p2878
aV76561198011291540
p2879
aV76561197961689613
p2880
aV76561197992752603
p2881
aV76561198040060595
p2882
aV76561198035624486
p2883
aV76561198070514865
p2884
aV76561197996837849
p2885
aV76561197964063474
p2886
aV76561197998625459
p2887
aV76561197972434938
p2888
aV76561198005698309
p2889
aV76561198005026554
p2890
aV76561198147163026
p2891
aV76561198180108090
p2892
aV76561198010607531
p2893
aV76561198042771853
p2894
aV76561197962571377
p2895
aV76561198034160119
p2896
aV76561198026023304
p2897
aV76561198014195260
p2898
aV76561198022411809
p2899
aV76561198197578014
p2900
aV76561198019485073
p2901
aV76561197981685238
p2902
aV76561198179637839
p2903
aV76561197960426170
p2904
aV76561198263455567
p2905
aV76561198032834119
p2906
aV76561198015637284
p2907
aV76561198007302244
p2908
aV76561197988638476
p2909
aV76561198057930230
p2910
aV76561197971187471
p2911
aV76561197966549949
p2912
aV76561197972272617
p2913
aV76561198146848455
p2914
aV76561197960795320
p2915
aV76561198037283482
p2916
aV76561198085829927
p2917
aV76561197981486172
p2918
aV76561197960458694
p2919
aV76561198004312683
p2920
aV76561198122655033
p2921
aV76561197992837411
p2922
aV76561198017542603
p2923
aV76561197961034306
p2924
aV76561197964857719
p2925
aV76561198071142425
p2926
aV76561198154457860
p2927
aV76561198001309440
p2928
aV76561197985446241
p2929
aV76561198131650131
p2930
aV76561198001700880
p2931
aV76561197997074679
p2932
aV76561198183759003
p2933
aV76561198155838258
p2934
aV76561197970670901
p2935
aV76561197991806917
p2936
aV76561197961443646
p2937
aV76561198025055095
p2938
aV76561197966602085
p2939
aV76561197984825524
p2940
aV76561197990519125
p2941
aV76561197963218880
p2942
aV76561197967130506
p2943
aV76561198046084918
p2944
aV76561198000465768
p2945
aV76561197961098261
p2946
aV76561197998049367
p2947
aV76561198067247715
p2948
aV76561197971762319
p2949
aV76561198025224096
p2950
aV76561198043640535
p2951
aV76561198074786927
p2952
aV76561197983617394
p2953
aV76561198083422243
p2954
aV76561197970529026
p2955
aV76561197982254207
p2956
aV76561198140600678
p2957
aV76561198000361843
p2958
aV76561198015742373
p2959
aV76561197981283517
p2960
aV76561197994256206
p2961
aV76561198030978064
p2962
aV76561197962074991
p2963
aV76561197968274802
p2964
aV76561198115165614
p2965
aV76561198018471613
p2966
aV76561197960903022
p2967
aV76561198073145303
p2968
aV76561198023963444
p2969
aV76561197971320495
p2970
aV76561197980217418
p2971
aV76561197999110672
p2972
aV76561197970341964
p2973
aV76561198072195141
p2974
aV76561198071842889
p2975
aV76561198010003965
p2976
aV76561197972608734
p2977
aV76561198114471129
p2978
aV76561198024923633
p2979
aV76561198114252215
p2980
aV76561197986552483
p2981
aV76561198073062839
p2982
aV76561198017608669
p2983
aV76561197976742550
p2984
aV76561198201709066
p2985
aV76561198083867446
p2986
aV76561198009782647
p2987
aV76561198083295961
p2988
aV76561198036399645
p2989
aV76561197971135713
p2990
aV76561198036759212
p2991
aV76561197991874566
p2992
aV76561198009614296
p2993
aV76561197975941271
p2994
aV76561198056794579
p2995
aV76561197992549172
p2996
aV76561197970438397
p2997
aV76561197994640832
p2998
aV76561197966681342
p2999
aV76561197992309826
p3000
aV76561197993873384
p3001
aV76561197982985295
p3002
aV76561197986384352
p3003
aV76561198058763952
p3004
aV76561198026086732
p3005
aV76561198007808181
p3006
aV76561197984368578
p3007
aV76561197982622944
p3008
aV76561198082664930
p3009
aV76561197960769020
p3010
aV76561197970499681
p3011
aV76561197988376242
p3012
aV76561198050989921
p3013
aV76561197961321970
p3014
aV76561197964319315
p3015
aV76561198004488190
p3016
aV76561197964935398
p3017
aV76561198278811358
p3018
aV76561198043601504
p3019
aV76561197975627041
p3020
aV76561198021138141
p3021
aV76561197998699245
p3022
aV76561198091170793
p3023
aV76561197977558490
p3024
aV76561197983313586
p3025
aV76561198025576865
p3026
aV76561198125631270
p3027
aV76561198242631976
p3028
aV76561198122516516
p3029
aV76561198001889017
p3030
aV76561197966858388
p3031
aV76561197963780036
p3032
aV76561197960347657
p3033
aV76561198042549977
p3034
aV76561198028115341
p3035
aV76561197960347659
p3036
aV76561198000451642
p3037
aV76561197970265846
p3038
aV76561197969430711
p3039
aV76561197986910464
p3040
aV76561197998035174
p3041
aV76561198036734335
p3042
aV76561198138252339
p3043
aV76561198046217560
p3044
aV76561198012826099
p3045
aV76561197979138413
p3046
aV76561197980796837
p3047
aV76561198027626051
p3048
aV76561197993617743
p3049
aV76561198011352638
p3050
aV76561198001483488
p3051
aV76561198067427410
p3052
aV76561197964120500
p3053
aV76561198000854660
p3054
aV76561198014926853
p3055
aV76561197965376139
p3056
aV76561197970618868
p3057
aV76561197960875941
p3058
aV76561197988040919
p3059
aV76561197990964972
p3060
aV76561197960445611
p3061
aV76561197991087496
p3062
aV76561198070538712
p3063
aV76561197961318355
p3064
aV76561197992695975
p3065
aV76561198064531167
p3066
aV76561197962346818
p3067
aV76561198164758749
p3068
aV76561198064112623
p3069
aV76561198046612339
p3070
aV76561198090559220
p3071
aV76561197991161059
p3072
aV76561198055323026
p3073
aV76561198002051187
p3074
aV76561198010024485
p3075
aV76561198009247839
p3076
aV76561197989681485
p3077
aV76561198056241616
p3078
aV76561197964150615
p3079
aV76561198058889536
p3080
aV76561198088572675
p3081
aV76561197981957013
p3082
aV76561198006324941
p3083
aV76561198008561961
p3084
aV76561198077710019
p3085
aV76561197982594330
p3086
aV76561198025197668
p3087
aV76561198004809158
p3088
aV76561198018489237
p3089
aV76561198119675256
p3090
aV76561197963158169
p3091
aV76561198006320407
p3092
aV76561198031058311
p3093
aV76561198044355134
p3094
aV76561198009444315
p3095
aV76561197988087025
p3096
aV76561197993068074
p3097
aV76561198026832430
p3098
aV76561197986382893
p3099
aV76561197962889452
p3100
aV76561197967644791
p3101
aV76561197989315571
p3102
aV76561197997597678
p3103
aV76561198121116636
p3104
aV76561198006141087
p3105
aV76561197971960205
p3106
aV76561197998771477
p3107
aV76561197974593272
p3108
aV76561198005362905
p3109
aV76561197960956674
p3110
aV76561197993264668
p3111
aV76561198004162309
p3112
aV76561198055762413
p3113
aV76561197960279517
p3114
aV76561198079070092
p3115
aV76561198004703090
p3116
aV76561198111243489
p3117
aV76561198119039123
p3118
aV76561197970729530
p3119
aV76561198152160394
p3120
aV76561197993312895
p3121
aV76561197968492410
p3122
aV76561197989521282
p3123
aV76561198166731364
p3124
aV76561198037538263
p3125
aV76561198009054939
p3126
aV76561198068673181
p3127
aV76561198014524961
p3128
aV76561198077639904
p3129
aV76561197970501282
p3130
aV76561197960925707
p3131
aV76561198020969504
p3132
aV76561197982753569
p3133
aV76561197989057266
p3134
aV76561198053779385
p3135
aV76561197980020607
p3136
aV76561197987766076
p3137
aV76561198059465012
p3138
aV76561198084186699
p3139
aV76561198056868319
p3140
aV76561197987249701
p3141
aV76561197969319990
p3142
aV76561198008893490
p3143
aV76561197987349851
p3144
aV76561197964698347
p3145
aV76561198178048947
p3146
aV76561197986059751
p3147
aV76561198086337398
p3148
aV76561197996793789
p3149
aV76561197966003639
p3150
aV76561197972310722
p3151
aV76561197960534898
p3152
aV76561198067216641
p3153
aV76561197978446905
p3154
aV76561198003226447
p3155
aV76561197962255152
p3156
aV76561198207599296
p3157
aV76561198040046046
p3158
aV76561198079991021
p3159
aV76561198015671330
p3160
aV76561198043613240
p3161
aV76561197989670672
p3162
aV76561197960542021
p3163
aV76561197995324240
p3164
aV76561197991889673
p3165
aV76561198149502489
p3166
aV76561198018961084
p3167
aV76561198150702154
p3168
aV76561197997054169
p3169
aV76561197995900533
p3170
aV76561198025154160
p3171
aV76561198000649987
p3172
aV76561198025107285
p3173
aV76561197977251977
p3174
aV76561198038223591
p3175
aV76561197960321782
p3176
aV76561198201528959
p3177
aV76561198167755515
p3178
aV76561198030327571
p3179
aV76561197972604010
p3180
aV76561197960290089
p3181
aV76561198001382605
p3182
aV76561198042286930
p3183
aV76561197998419248
p3184
aV76561197987724798
p3185
aV76561197977021579
p3186
aV76561198009990710
p3187
aV76561197985140231
p3188
aV76561197973537234
p3189
aV76561197967676606
p3190
aV76561197988311281
p3191
aV76561197974068971
p3192
aV76561197960864664
p3193
aV76561198058443093
p3194
aV76561197960460656
p3195
aV76561197981070927
p3196
aV76561197986345521
p3197
aV76561197988151413
p3198
aV76561198283848618
p3199
aV76561198005927714
p3200
aV76561197970505569
p3201
aV76561198053346547
p3202
aV76561198060184647
p3203
aV76561197996666592
p3204
aV76561197992155303
p3205
aV76561198239619638
p3206
aV76561198169026595
p3207
aV76561198058668857
p3208
aV76561198098574951
p3209
aV76561197961210059
p3210
aV76561198008209433
p3211
aV76561197971850017
p3212
aV76561197976843692
p3213
aV76561198135386148
p3214
aV76561197962084260
p3215
aV76561197962197907
p3216
aV76561197979239244
p3217
aV76561197978257825
p3218
aV76561198025108195
p3219
aV76561198002379142
p3220
aV76561198092601370
p3221
aV76561198179354703
p3222
atRp3223
.